


ARM Macro Assembler    Page 1 Laboratory Exercise 13


    1 00000000                 TTL              Laboratory Exercise 13
    2 00000000         ;*******************************************************
                       *********
    3 00000000         ;This exercise explores the use of the touch sensor (TSI
                       ) built
    4 00000000         ; into the KL46 board. The game uses the UART0, PIT, and
                        TSI
    5 00000000         ; to run games of 10 rounds testing the users reaction t
                       ime
    6 00000000         ; from when the green LED lights, to when they touch the
                        sensor
    7 00000000         ;Name:  Luke Veilleux
    8 00000000         ;Date:  11/29/2016
    9 00000000         ;Class:  CMPE-250
   10 00000000         ;Section:  Section 1, Tuesday 2:00 - 3:50
   11 00000000         ;-------------------------------------------------------
                       --------
   12 00000000         ;Keil Template for KL46 Assembly with Keil C startup
   13 00000000         ;R. W. Melton
   14 00000000         ;April 20, 2015
   15 00000000         ;*******************************************************
                       *********
   16 00000000         ;Assembler directives
   17 00000000                 THUMB
   18 00000000                 GBLL             MIXED_ASM_C
   19 00000000 TRUE     
                       MIXED_ASM_C
                               SETL             {TRUE}
   21 00000000         ;*******************************************************
                       *********
   22 00000000         ;Include files
   23 00000000                 GET              MKL46Z4.s   ;Included by start.
                                                            s
   25 00000000         ;*******************************************************
                       *********
   26 00000000         ;EQUates
   27 00000000         ;-------------------------------------------------------
                       --------
   28 00000000         ;NVIC_ICER
   29 00000000         ;31-00:CLRENA=masks for HW IRQ sources;
   30 00000000         ;             read:   0 = unmasked;   1 = masked
   31 00000000         ;             write:  0 = no effect;  1 = mask
   32 00000000         ;22:PIT IRQ mask
   33 00000000         ;12:UART0 IRQ mask
   34 00000000 00400000 
                       NVIC_ICER_PIT_MASK
                               EQU              PIT_IRQ_MASK
   35 00000000 00001000 
                       NVIC_ICER_UART0_MASK
                               EQU              UART0_IRQ_MASK
   36 00000000         ;-------------------------------------------------------
                       --------
   37 00000000         ;NVIC_ICPR
   38 00000000         ;31-00:CLRPEND=pending status for HW IRQ sources;
   39 00000000         ;             read:   0 = not pending;  1 = pending
   40 00000000         ;             write:  0 = no effect;
   41 00000000         ;                     1 = change status to not pending
   42 00000000         ;22:PIT IRQ pending status
   43 00000000         ;12:UART0 IRQ pending status



ARM Macro Assembler    Page 2 Laboratory Exercise 13


   44 00000000 00400000 
                       NVIC_ICPR_PIT_MASK
                               EQU              PIT_IRQ_MASK
   45 00000000 00001000 
                       NVIC_ICPR_UART0_MASK
                               EQU              UART0_IRQ_MASK
   46 00000000         ;-------------------------------------------------------
                       --------
   47 00000000         ;NVIC_IPR0-NVIC_IPR7
   48 00000000         ;2-bit priority:  00 = highest; 11 = lowest
   49 00000000         ;--PIT
   50 00000000 00000000 
                       PIT_IRQ_PRIORITY
                               EQU              0
   51 00000000 00C00000 
                       NVIC_IPR_PIT_MASK
                               EQU              (3 << PIT_PRI_POS)
   52 00000000 00000000 
                       NVIC_IPR_PIT_PRI_0
                               EQU              (PIT_IRQ_PRIORITY << UART0_PRI_
POS)
   53 00000000         ;--UART0
   54 00000000 00000003 
                       UART0_IRQ_PRIORITY
                               EQU              3
   55 00000000 000000C0 
                       NVIC_IPR_UART0_MASK
                               EQU              (3 << UART0_PRI_POS)
   56 00000000 000000C0 
                       NVIC_IPR_UART0_PRI_3
                               EQU              (UART0_IRQ_PRIORITY << UART0_PR
I_POS)
   57 00000000         ;-------------------------------------------------------
                       --------
   58 00000000         ;NVIC_ISER
   59 00000000         ;31-00:SETENA=masks for HW IRQ sources;
   60 00000000         ;             read:   0 = masked;     1 = unmasked
   61 00000000         ;             write:  0 = no effect;  1 = unmask
   62 00000000         ;22:PIT IRQ mask
   63 00000000         ;12:UART0 IRQ mask
   64 00000000 00400000 
                       NVIC_ISER_PIT_MASK
                               EQU              PIT_IRQ_MASK
   65 00000000 00001000 
                       NVIC_ISER_UART0_MASK
                               EQU              UART0_IRQ_MASK
   66 00000000         ;-------------------------------------------------------
                       --------
   67 00000000         ;PORTx_PCRn (Port x pin control register n [for pin n])
   68 00000000         ;___->10-08:Pin mux control (select 0 to 8)
   69 00000000         ;Use provided PORT_PCR_MUX_SELECT_2_MASK
   70 00000000         ;-------------------------------------------------------
                       --------
   71 00000000         ;Port A
   73 00000000 01000200 
                       PORT_PCR_SET_PTA1_UART0_RX
                               EQU              (PORT_PCR_ISF_MASK :OR:       
                             PORT_PCR_MUX_SELECT_2_MASK)
   75 00000000 01000200 



ARM Macro Assembler    Page 3 Laboratory Exercise 13


                       PORT_PCR_SET_PTA2_UART0_TX
                               EQU              (PORT_PCR_ISF_MASK :OR:       
                             PORT_PCR_MUX_SELECT_2_MASK)
   76 00000000         ;-------------------------------------------------------
                       --------
   77 00000000         ;SIM_SCGC4
   78 00000000         ;1->10:UART0 clock gate control (enabled)
   79 00000000         ;Use provided SIM_SCGC4_UART0_MASK
   80 00000000         ;-------------------------------------------------------
                       --------
   81 00000000         ;SIM_SCGC5
   82 00000000         ;1->09:Port A clock gate control (enabled)
   83 00000000         ;Use provided SIM_SCGC5_PORTA_MASK
   84 00000000         ;-------------------------------------------------------
                       --------
   85 00000000         ;SIM_SOPT2
   86 00000000         ;01=27-26:UART0SRC=UART0 clock source select
   87 00000000         ;         (PLLFLLSEL determines MCGFLLCLK' or MCGPLLCLK/
                       2)
   88 00000000         ; 1=   16:PLLFLLSEL=PLL/FLL clock select (MCGPLLCLK/2)
   90 00000000 04000000 
                       SIM_SOPT2_UART0SRC_MCGPLLCLK
                               EQU              (1 << SIM_SOPT2_UART0SRC_SHIFT)
   92 00000000 04010000 
                       SIM_SOPT2_UART0_MCGPLLCLK_DIV2
                               EQU              (SIM_SOPT2_UART0SRC_MCGPLLCLK :
OR: SIM_SOPT2_PLLFLLSEL_MASK)
   93 00000000         ;-------------------------------------------------------
                       --------
   94 00000000         ;SIM_SOPT5
   95 00000000         ; 0->   16:UART0 open drain enable (disabled)
   96 00000000         ; 0->   02:UART0 receive data select (UART0_RX)
   97 00000000         ;00->01-00:UART0 transmit data select source (UART0_TX)
  101 00000000 00010007 
                       SIM_SOPT5_UART0_EXTERN_MASK_CLEAR
                               EQU              (SIM_SOPT5_UART0ODE_MASK :OR:  
                                SIM_SOPT5_UART0RXSRC_MASK :OR:               
                   SIM_SOPT5_UART0TXSRC_MASK)
  102 00000000         ;-------------------------------------------------------
                       --------
  103 00000000         ;UART0_BDH
  104 00000000         ;    0->  7:LIN break detect IE (disabled)
  105 00000000         ;    0->  6:RxD input active edge IE (disabled)
  106 00000000         ;    0->  5:Stop bit number select (1)
  107 00000000         ;00001->4-0:SBR[12:0] (UART0CLK / [9600 * (OSR + 1)]) 
  108 00000000         ;UART0CLK is MCGPLLCLK/2
  109 00000000         ;MCGPLLCLK is 96 MHz
  110 00000000         ;MCGPLLCLK/2 is 48 MHz
  111 00000000         ;SBR = 48 MHz / (9600 * 16) = 312.5 --> 312 = 0x138
  112 00000000 00000001 
                       UART0_BDH_9600
                               EQU              0x01
  113 00000000         ;-------------------------------------------------------
                       --------
  114 00000000         ;UART0_BDL
  115 00000000         ;26->7-0:SBR[7:0] (UART0CLK / [9600 * (OSR + 1)])
  116 00000000         ;UART0CLK is MCGPLLCLK/2
  117 00000000         ;MCGPLLCLK is 96 MHz
  118 00000000         ;MCGPLLCLK/2 is 48 MHz



ARM Macro Assembler    Page 4 Laboratory Exercise 13


  119 00000000         ;SBR = 48 MHz / (9600 * 16) = 312.5 --> 312 = 0x138
  120 00000000 00000038 
                       UART0_BDL_9600
                               EQU              0x38
  121 00000000         ;-------------------------------------------------------
                       --------
  122 00000000         ;UART0_C1
  123 00000000         ;0-->7:LOOPS=loops select (normal)
  124 00000000         ;0-->6:DOZEEN=doze enable (disabled)
  125 00000000         ;0-->5:RSRC=receiver source select (internal--no effect 
                       LOOPS=0)
  126 00000000         ;0-->4:M=9- or 8-bit mode select 
  127 00000000         ;        (1 start, 8 data [lsb first], 1 stop)
  128 00000000         ;0-->3:WAKE=receiver wakeup method select (idle)
  129 00000000         ;0-->2:IDLE=idle line type select (idle begins after sta
                       rt bit)
  130 00000000         ;0-->1:PE=parity enable (disabled)
  131 00000000         ;0-->0:PT=parity type (even parity--no effect PE=0)
  132 00000000 00000000 
                       UART0_C1_8N1
                               EQU              0x00
  133 00000000         ;-------------------------------------------------------
                       --------
  134 00000000         ;UART0_C2
  135 00000000         ;0-->7:TIE=transmit IE for TDRE (disabled)
  136 00000000         ;0-->6:TCIE=transmission complete IE for TC (disabled)
  137 00000000         ;0-->5:RIE=receiver IE for RDRF (disabled)
  138 00000000         ;0-->4:ILIE=idle line IE for IDLE (disabled)
  139 00000000         ;1-->3:TE=transmitter enable (enabled)
  140 00000000         ;1-->2:RE=receiver enable (enabled)
  141 00000000         ;0-->1:RWU=receiver wakeup control (normal)
  142 00000000         ;0-->0:SBK=send break (disabled, normal)
  143 00000000 0000000C 
                       UART0_C2_T_R
                               EQU              (UART0_C2_TE_MASK :OR: UART0_C2
_RE_MASK)
  144 00000000 0000002C 
                       UART0_C2_T_RI
                               EQU              (UART0_C2_RIE_MASK :OR: UART0_C
2_T_R)
  145 00000000 000000AC 
                       UART0_C2_TI_RI
                               EQU              (UART0_C2_TIE_MASK :OR: UART0_C
2_T_RI)
  146 00000000         ;-------------------------------------------------------
                       --------
  147 00000000         ;UART0_C3
  148 00000000         ;0-->7:R8T9=9th data bit for receiver (not used M=0)
  149 00000000         ;           10th data bit for transmitter (not used M10=
                       0)
  150 00000000         ;0-->6:R9T8=9th data bit for transmitter (not used M=0)
  151 00000000         ;           10th data bit for receiver (not used M10=0)
  152 00000000         ;0-->5:TXDIR=UART_TX pin direction in single-wire mode
  153 00000000         ;            (no effect LOOPS=0)
  154 00000000         ;0-->4:TXINV=transmit data inversion (not inverted)
  155 00000000         ;0-->3:ORIE=overrun IE for OR (disabled)
  156 00000000         ;0-->2:NEIE=noise error IE for NF (disabled)
  157 00000000         ;0-->1:FEIE=framing error IE for FE (disabled)
  158 00000000         ;0-->0:PEIE=parity error IE for PF (disabled)



ARM Macro Assembler    Page 5 Laboratory Exercise 13


  159 00000000 00000000 
                       UART0_C3_NO_TXINV
                               EQU              0x00
  160 00000000         ;-------------------------------------------------------
                       --------
  161 00000000         ;UART0_C4
  162 00000000         ;    0-->  7:MAEN1=match address mode enable 1 (disabled
                       )
  163 00000000         ;    0-->  6:MAEN2=match address mode enable 2 (disabled
                       )
  164 00000000         ;    0-->  5:M10=10-bit mode select (not selected)
  165 00000000         ;01111-->4-0:OSR=over sampling ratio (16)
  166 00000000         ;               = 1 + OSR for 3 <= OSR <= 31
  167 00000000         ;               = 16 for 0 <= OSR <= 2 (invalid values)
  168 00000000 0000000F 
                       UART0_C4_OSR_16
                               EQU              0x0F
  169 00000000 0000000F 
                       UART0_C4_NO_MATCH_OSR_16
                               EQU              UART0_C4_OSR_16
  170 00000000         ;-------------------------------------------------------
                       --------
  171 00000000         ;UART0_C5
  172 00000000         ;  0-->  7:TDMAE=transmitter DMA enable (disabled)
  173 00000000         ;  0-->  6:Reserved; read-only; always 0
  174 00000000         ;  0-->  5:RDMAE=receiver full DMA enable (disabled)
  175 00000000         ;000-->4-2:Reserved; read-only; always 0
  176 00000000         ;  0-->  1:BOTHEDGE=both edge sampling (rising edge only
                       )
  177 00000000         ;  0-->  0:RESYNCDIS=resynchronization disable (enabled)
                       
  178 00000000 00000000 
                       UART0_C5_NO_DMA_SSR_SYNC
                               EQU              0x00
  179 00000000         ;-------------------------------------------------------
                       --------
  180 00000000         ;UART0_S1
  181 00000000         ;0-->7:TDRE=transmit data register empty flag; read-only
                       
  182 00000000         ;0-->6:TC=transmission complete flag; read-only
  183 00000000         ;0-->5:RDRF=receive data register full flag; read-only
  184 00000000         ;1-->4:IDLE=idle line flag; write 1 to clear (clear)
  185 00000000         ;1-->3:OR=receiver overrun flag; write 1 to clear (clear
                       )
  186 00000000         ;1-->2:NF=noise flag; write 1 to clear (clear)
  187 00000000         ;1-->1:FE=framing error flag; write 1 to clear (clear)
  188 00000000         ;1-->0:PF=parity error flag; write 1 to clear (clear)
  189 00000000 0000001F 
                       UART0_S1_CLEAR_FLAGS
                               EQU              0x1F
  190 00000000         ;-------------------------------------------------------
                       --------
  191 00000000         ;UART0_S2
  192 00000000         ;1-->7:LBKDIF=LIN break detect interrupt flag (clear)
  193 00000000         ;             write 1 to clear
  194 00000000         ;1-->6:RXEDGIF=RxD pin active edge interrupt flag (clear
                       )
  195 00000000         ;              write 1 to clear
  196 00000000         ;0-->5:(reserved); read-only; always 0



ARM Macro Assembler    Page 6 Laboratory Exercise 13


  197 00000000         ;0-->4:RXINV=receive data inversion (disabled)
  198 00000000         ;0-->3:RWUID=receive wake-up idle detect
  199 00000000         ;0-->2:BRK13=break character generation length (10)
  200 00000000         ;0-->1:LBKDE=LIN break detect enable (disabled)
  201 00000000         ;0-->0:RAF=receiver active flag; read-only
  202 00000000 000000C0 
                       UART0_S2_NO_RXINV_BRK10_NO_LBKDETECT_CLEAR_FLAGS
                               EQU              0xC0
  203 00000000         ;-------------------------------------------------------
                       --------
  204 00000000         ;PIT_LDVALn:  PIT load value register n
  205 00000000         ;31-00:TSV=timer start value (period in clock cycles - 1
                       )
  206 00000000         ;Clock ticks for 0.01 s at 24 MHz count rate
  207 00000000         ;0.01 s * 24,000,000 Hz = 240,000
  208 00000000         ;TSV = 240,000 - 1
  209 00000000 0003A97F 
                       PIT_LDVAL_10ms
                               EQU              239999
  210 00000000         ;-------------------------------------------------------
                       --------
  211 00000000         ;PIT_MCR:  PIT module control register
  212 00000000         ;1-->    0:FRZ=freeze (continue'/stop in debug mode)
  213 00000000         ;0-->    1:MDIS=module disable (PIT section)
  214 00000000         ;               RTI timer not affected
  215 00000000         ;               must be enabled before any other PIT set
                       up
  216 00000000 00000001 
                       PIT_MCR_EN_FRZ
                               EQU              PIT_MCR_FRZ_MASK
  217 00000000         ;-------------------------------------------------------
                       --------
  218 00000000         ;PIT_TCTRLn:  PIT timer control register n
  219 00000000         ;0-->   2:CHN=chain mode (enable)
  220 00000000         ;1-->   1:TIE=timer interrupt enable
  221 00000000         ;1-->   0:TEN=timer enable
  222 00000000 00000003 
                       PIT_TCTRL_CH_IE
                               EQU              (PIT_TCTRL_TEN_MASK :OR: PIT_TC
TRL_TIE_MASK)
  223 00000000         ;-------------------------------------------------------
                       --------
  224 00000000         ;Most Significant Bit shift
  225 00000000 00000018 
                       MSBSHIFT
                               EQU              24
  226 00000000         ;Max string length with null terminator
  227 00000000 0000004F 
                       MAX_STRING
                               EQU              79
  228 00000000         ;Management Record Structure fields
  229 00000000 00000000 
                       IN_PTR  EQU              0
  230 00000000 00000004 
                       OUT_PTR EQU              4
  231 00000000 00000008 
                       BUF_STRT
                               EQU              8
  232 00000000 0000000C 



ARM Macro Assembler    Page 7 Laboratory Exercise 13


                       BUF_PAST
                               EQU              12
  233 00000000 00000010 
                       BUF_SIZE
                               EQU              16
  234 00000000 00000011 
                       NUM_ENQD
                               EQU              17
  235 00000000         ;Queue sizes in memory
  236 00000000 00000050 
                       Q_BUF_SZ
                               EQU              80          ;Size of Queue
  237 00000000 00000012 
                       Q_REC_SZ
                               EQU              18          ;Size of Queue Reco
                                                            rd
  238 00000000 00000004 
                       Q_BUFFER_SZ
                               EQU              4           ;Size of operation 
                                                            Queue
  239 00000000         ;Character values to move from hex to ASCII
  240 00000000 00000037 
                       ALPHA_CHAR
                               EQU              55          ;Value to go from 0
                                                            xA to 'A'
  241 00000000 00000030 
                       NUM_CHAR
                               EQU              48          ;Value to go from 0
                                                            x0 to 0
  242 00000000         
  243 00000000         ;RED and GREEN LEDs
  244 00000000         ;Green LED Port D pin 5
  245 00000000 00000100 
                       PTD5_MUX_GPIO
                               EQU              (1 << PORT_PCR_MUX_SHIFT)
  246 00000000 01000100 
                       SET_PTD5_GPIO
                               EQU              (PORT_PCR_ISF_MASK :OR: PTD5_MU
X_GPIO)
  247 00000000 00000005 
                       POS_GREEN
                               EQU              (5)
  248 00000000 00000020 
                       LED_GREEN_MASK
                               EQU              (1 << POS_GREEN)
  249 00000000 00000020 
                       LED_PORTD_MASK
                               EQU              (LED_GREEN_MASK)
  250 00000000         ;Red LED Port E pin 29
  251 00000000 00000100 
                       PTE29_MUX_GPIO
                               EQU              (1 << PORT_PCR_MUX_SHIFT)
  252 00000000 01000100 
                       SET_PTE29_GPIO
                               EQU              (PORT_PCR_ISF_MASK :OR: PTE29_M
UX_GPIO)
  253 00000000 0000001D 
                       POS_RED EQU              (29)
  254 00000000 20000000 



ARM Macro Assembler    Page 8 Laboratory Exercise 13


                       LED_RED_MASK
                               EQU              (1 << POS_RED)
  255 00000000 20000000 
                       LED_PORTE_MASK
                               EQU              (LED_RED_MASK)
  256 00000000         
  257 00000000         
  258 00000000         ;*******************************************************
                       *********
  259 00000000         ;MACROs
  260 00000000         ;*******************************************************
                       *********
  261 00000000         ;Program
  262 00000000         ;C source will contain main ()
  263 00000000         ;Only subroutines and ISRs in this assembly source
  264 00000000                 AREA             MyCode,CODE,READONLY
  265 00000000                 EXPORT           PutStringSB
  266 00000000                 EXPORT           Init_UART0_IRQ
  267 00000000                 EXPORT           Init_GPIO_LED
  268 00000000                 EXPORT           UART0_IRQHandler
  269 00000000                 EXPORT           GetChar
  270 00000000                 EXPORT           PutChar
  271 00000000                 EXPORT           PutNumHex
  272 00000000                 EXPORT           PutNumU
  273 00000000                 EXPORT           Turn_On_LED
  274 00000000                 EXPORT           Turn_Off_LED
  275 00000000                 EXPORT           Init_PIT_IRQ
  276 00000000                 EXPORT           PIT_IRQHandler
  277 00000000                 ENTRY
  278 00000000         ;>>>>> begin subroutine code <<<<<
  279 00000000         PutNumU
  280 00000000         ;Subroutine that prints out the text decimal representai
                       on of the unsigned
  281 00000000         ; word value stored in R0.
  282 00000000         ;Input - R0 - Value to print out to the screen in decima
                       l format.
  283 00000000         ;Output - None
  284 00000000         ; No registers change on return besides LR, PC, PSR.
  285 00000000 B507            PUSH             {R0 - R2, LR}
  286 00000002 2104            MOVS             R1,#0x04
  287 00000004 B402            PUSH             {R1}
  288 00000006 2200            MOVS             R2,#0x00    ;Initialize boolean
                                                             nothing printed fl
                                                            ag
  289 00000008         ;Continually divide by 10 and store resulting num in sta
                       ck
  290 00000008 210A    PutNumLoop
                               MOVS             R1,#10
  291 0000000A F000 F815       BL               DIVU
  292 0000000E 2900            CMP              R1,#0x00
  293 00000010 D002            BEQ              PutNumStopDiv
  294 00000012 3130    PutNumCont
                               ADDS             R1,R1,#NUM_CHAR
  295 00000014 B402            PUSH             {R1}
  296 00000016 E7F7            BAL              PutNumLoop
  297 00000018         
  298 00000018         PutNumStopDiv
  299 00000018 2800            CMP              R0,#0x00
  300 0000001A D000            BEQ              PutNumPrint



ARM Macro Assembler    Page 9 Laboratory Exercise 13


  301 0000001C E7F9            BAL              PutNumCont
  302 0000001E         
  303 0000001E         ;Print out backwards from stack.
  304 0000001E         PutNumPrint
  305 0000001E BC01            POP              {R0}
  306 00000020 2804            CMP              R0,#0x04
  307 00000022 D003            BEQ              PutNumEndTrans
  308 00000024 2201            MOVS             R2,#1       ;Change R2 to be no
                                                            n-zero
  309 00000026 F7FF FFFE       BL               PutChar
  310 0000002A E7F8            BAL              PutNumPrint
  311 0000002C         PutNumEndTrans
  312 0000002C 2A00            CMP              R2,#0x00
  313 0000002E D102            BNE              PutNumRtn
  314 00000030 2030            MOVS             R0,#'0'
  315 00000032 F7FF FFFE       BL               PutChar
  316 00000036         ;Restore registers and return
  317 00000036         PutNumRtn
  318 00000036 BD07            POP              {R0 - R2, PC}
  319 00000038         ;*******************************************************
                       *********
  320 00000038         DIVU
  321 00000038         ; Divides the value in R1 by the value in R0.
  322 00000038         ; Parameters
  323 00000038         ; Inputs:
  324 00000038         ;  R0: Divisor [P]
  325 00000038         ;  R1: Dividend [Q]
  326 00000038         ; Outputs:
  327 00000038         ;  R0: Quotient
  328 00000038         ;  R1: Remainder
  329 00000038 B40C            PUSH             {R2, R3}
  330 0000003A 2900            CMP              R1,#0       ;Compare R1 and 0
  331 0000003C D011            BEQ              RETURN_0    ;If 0, branch to RE
                                                            TURN_0
  332 0000003E 2200            MOVS             R2,#0       ;R2(Quotient) = 0
  333 00000040         
  334 00000040 4288    LOOP_DIV
                               CMP              R0,R1       ;Compare R0 and R1
  335 00000042 D303            BLO              RETURN_DIV  ;If R0 < R1, goto R
                                                            ETURN_DIV
  336 00000044 1C52            ADDS             R2,R2,#1    ;R2 += 1
  337 00000046 1A40            SUBS             R0,R0,R1    ;R0 -= R1
  338 00000048 D000            BEQ              RETURN_DIV  ;Branch if SUBS had
                                                             a 0 value
  339 0000004A E7F9            BAL              LOOP_DIV    ;Branch back to LOO
                                                            P_DIV
  340 0000004C         
  341 0000004C 0001    RETURN_DIV
                               MOVS             R1,R0       ;R1 = R0(Remainder)
                                                            
  342 0000004E 0010            MOVS             R0,R2       ;R0 = R2(Quotient)
  343 00000050 F3EF 8200       MRS              R2,APSR     ;Store from flags r
                                                            egister
  344 00000054 2320            MOVS             R3,#0x20    ;R3 = 32
  345 00000056 061B            LSLS             R3,R3,#MSBSHIFT ;Shift to MSb p
                                                            osition
  346 00000058 439A            BICS             R2,R2,R3    ;R2 && R3
  347 0000005A F382 8800       MSR              APSR,R2     ;Restore flag regis
                                                            ter



ARM Macro Assembler    Page 10 Laboratory Exercise 13


  348 0000005E BC0C            POP              {R2, R3}    ;Restore register v
                                                            alues
  349 00000060 4770            BX               LR          ;Return
  350 00000062         
  351 00000062 F3EF 8200 
                       RETURN_0
                               MRS              R2,APSR
  352 00000066 2320            MOVS             R3, #0x20   ;R3 = 32
  353 00000068 061B            LSLS             R3,R3,#MSBSHIFT ;Shift to MSb p
                                                            osition
  354 0000006A 431A            ORRS             R2,R2,R3    ;R2 || R3
  355 0000006C F382 8800       MSR              APSR,R2     ;Restore flag regis
                                                            ter
  356 00000070 BC0C            POP              {R2, R3}    ;Restore register v
                                                            alues
  357 00000072 4770            BX               LR
  358 00000074         ;*******************************************************
                       *********
  359 00000074         PutNumHex
  360 00000074         ;Subroutine that takes in a hexadecimal number and print
                       s it out to
  361 00000074         ; the terminal window, making use of the PutChar subrout
                       ine and the
  362 00000074         ; UART0 to do this.
  363 00000074         ;Inputs - R0 - Hexadecimal number to print out
  364 00000074         ;Outputs - None
  365 00000074         ;Modify - None besides PSR.
  366 00000074 B50F            PUSH             {R0 - R3, LR}
  367 00000076         
  368 00000076 231C            MOVS             R3,#28      ;Initialize Loop/sh
                                                            ift counter
  369 00000078 0002            MOVS             R2,R0
  370 0000007A         PutNumHexLoop
  371 0000007A         ;Get a single digit from hex number and print it.
  372 0000007A         ;Starting at MSB to LSB
  373 0000007A 0010            MOVS             R0,R2
  374 0000007C 499B            LDR              R1,=0x0000000F
  375 0000007E 4099            LSLS             R1,R1,R3
  376 00000080 4008            ANDS             R0,R0,R1
  377 00000082 40D8            LSRS             R0,R0,R3
  378 00000084 2809            CMP              R0,#9
  379 00000086 DD01            BLE              PutNumHexNumber 
                                                            ;Digit is a number
  380 00000088 3037            ADDS             R0,R0,#ALPHA_CHAR
  381 0000008A E000            BAL              PutNumHexPrint ;Digit is alphab
                                                            etic
  382 0000008C         PutNumHexNumber
  383 0000008C 3030            ADDS             R0,R0,#NUM_CHAR
  384 0000008E         PutNumHexPrint
  385 0000008E         ;Print resulting character
  386 0000008E F7FF FFFE       BL               PutChar
  387 00000092 1F1B            SUBS             R3,R3,#4    ;Decrement counter/
                                                            shift
  388 00000094 D300            BLO              PutNumHexDone
  389 00000096 E7F0            BAL              PutNumHexLoop
  390 00000098         PutNumHexDone
  391 00000098 BD0F            POP              {R0 - R3, PC}
  392 0000009A         ;*******************************************************
                       *******



ARM Macro Assembler    Page 11 Laboratory Exercise 13


  393 0000009A         InitQueue
  394 0000009A         ;Subroutine that takes in a queue and record structure a
                       s well as
  395 0000009A         ; a max capacity and initializes the Queue and record st
                       ructure.
  396 0000009A         ;Inputs - R0 - Starting address for Queue buffer
  397 0000009A         ;    R1 - Starting address for Queue record structure
  398 0000009A         ;    R2 - Max capacity of the queue.
  399 0000009A         ;Outputs - [R0] - Initialized Queue Buffer starting addr
                       ess
  400 0000009A         ;     [R1] - Initialized Queue Record starting address
  401 0000009A         ;Only R0, R1 & PSR change value on return.
  402 0000009A B507            PUSH             {R0 - R2, LR}
  403 0000009C         ;Store In/Out Pointers & Buffer start
  404 0000009C 6008            STR              R0,[R1,#IN_PTR]
  405 0000009E 6048            STR              R0,[R1,#OUT_PTR]
  406 000000A0 6088            STR              R0,[R1,#BUF_STRT]
  407 000000A2         ;Compute and store Buffer past and size
  408 000000A2 1880            ADDS             R0,R0,R2
  409 000000A4 60C8            STR              R0,[R1,#BUF_PAST]
  410 000000A6 740A            STRB             R2,[R1,#BUF_SIZE]
  411 000000A8         ;Store 0 for number enqueued
  412 000000A8 2200            MOVS             R2,#0
  413 000000AA 744A            STRB             R2,[R1,#NUM_ENQD]
  414 000000AC         
  415 000000AC BD07            POP              {R0 - R2, PC}
  416 000000AE         ;*******************************************************
                       ***********
  417 000000AE         Enqueue
  418 000000AE         ;If the queue(whose queue record structure's address is 
                       in R1) is
  419 000000AE         ; not full, enqueue the character from R0 to the queue a
                       nd report
  420 000000AE         ;success by returning with the C flag cleared,
  421 000000AE         ; otherwise set the C flag.
  422 000000AE         ;Inputs - R0 - character to enqueue
  423 000000AE         ;    R1 - Address of the Queue Record
  424 000000AE         ;Outputs - PSR C flag - Success (0) or failure (1)
  425 000000AE         ;Modify: PSR. All other registers remain unchanged on re
                       turn
  426 000000AE         
  427 000000AE B51F            PUSH             {R0 - R4, LR}
  428 000000B0         ;Check if there is space in the queue
  429 000000B0 7C4A            LDRB             R2,[R1,#NUM_ENQD]
  430 000000B2 7C0B            LDRB             R3,[R1,#BUF_SIZE]
  431 000000B4 429A            CMP              R2,R3
  432 000000B6 DA0A            BGE              EnqueueFull ;Branch if queue is
                                                             full
  433 000000B8         ;Queue has space, store character, update Record.
  434 000000B8 680B            LDR              R3,[R1,#IN_PTR]
  435 000000BA 7018            STRB             R0,[R3,#0]
  436 000000BC 1C52            ADDS             R2,R2,#1    ;Increment number e
                                                            nqueued
  437 000000BE 1C5B            ADDS             R3,R3,#1    ;Increment InPointe
                                                            r
  438 000000C0         ;Check if InPointer is within the queue.
  439 000000C0 68CC            LDR              R4,[R1,#BUF_PAST]
  440 000000C2 42A3            CMP              R3,R4
  441 000000C4 DB00            BLT              EnqueueStorePTR



ARM Macro Assembler    Page 12 Laboratory Exercise 13


  442 000000C6 688B            LDR              R3,[R1,#BUF_STRT]
  443 000000C8         EnqueueStorePTR
  444 000000C8 600B            STR              R3,[R1,#IN_PTR]
  445 000000CA 744A            STRB             R2,[R1,#NUM_ENQD]
  446 000000CC E007            BAL              EnqueueSuccess
  447 000000CE         
  448 000000CE         EnqueueFull
  449 000000CE         ;Set C flag to show failure
  450 000000CE F3EF 8200       MRS              R2,APSR
  451 000000D2 2320            MOVS             R3, #0x20
  452 000000D4 061B            LSLS             R3,R3,#MSBSHIFT
  453 000000D6 431A            ORRS             R2,R2,R3
  454 000000D8 F382 8800       MSR              APSR,R2
  455 000000DC E006            BAL              EnqueueDone
  456 000000DE         
  457 000000DE         EnqueueSuccess
  458 000000DE         ;Clear C flag to show Success
  459 000000DE F3EF 8200       MRS              R2,APSR
  460 000000E2 2320            MOVS             R3,#0x20
  461 000000E4 061B            LSLS             R3,R3,#MSBSHIFT
  462 000000E6 439A            BICS             R2,R2,R3
  463 000000E8 F382 8800       MSR              APSR,R2
  464 000000EC         EnqueueDone
  465 000000EC BD1F            POP              {R0 - R4, PC}
  466 000000EE         ;*******************************************************
                       *************
  467 000000EE         Dequeue
  468 000000EE         ;If the queue(whose queue record structure's address is 
                       in R1) is not 
  469 000000EE         ; empty, dequeue the next character from the queue and r
                       eport success
  470 000000EE         ; by returning with the C flag cleared, otherwise set th
                       e C flag.
  471 000000EE         ;Inputs - R1 - Address of the Queue Record
  472 000000EE         ;Output - R0 - Character dequeued
  473 000000EE         ;       PSR C flag - Success (0) or failure (1)
  474 000000EE         ;Modify: PSR, R0. All other registers remain unchanged o
                       n return
  475 000000EE         
  476 000000EE B51E            PUSH             {R1 - R4, LR}
  477 000000F0         ;Check if the Queue is empty
  478 000000F0 7C4A            LDRB             R2,[R1,#NUM_ENQD]
  479 000000F2 2A00            CMP              R2,#0
  480 000000F4 D00A            BEQ              DequeueEmpty
  481 000000F6         ;Dequeue the next character
  482 000000F6 684B            LDR              R3,[R1,#OUT_PTR]
  483 000000F8 7818            LDRB             R0,[R3,#0]
  484 000000FA 1E52            SUBS             R2,R2,#1    ;Increment Number E
                                                            nqueued
  485 000000FC 1C5B            ADDS             R3,R3,#1    ;Increment OutPoint
                                                            er
  486 000000FE         ;Check if OutPointer is within Queue
  487 000000FE 68CC            LDR              R4,[R1,#BUF_PAST]
  488 00000100 42A3            CMP              R3,R4
  489 00000102 DB00            BLT              DequeueStorePTR
  490 00000104 688B            LDR              R3,[R1,#BUF_STRT]
  491 00000106         DequeueStorePTR
  492 00000106 604B            STR              R3,[R1,#OUT_PTR]
  493 00000108 744A            STRB             R2,[R1,#NUM_ENQD]



ARM Macro Assembler    Page 13 Laboratory Exercise 13


  494 0000010A E007            BAL              DequeueSuccess
  495 0000010C         
  496 0000010C         DequeueEmpty
  497 0000010C         ;Set C flag to show failure
  498 0000010C F3EF 8200       MRS              R2,APSR
  499 00000110 2320            MOVS             R3, #0x20
  500 00000112 061B            LSLS             R3,R3,#MSBSHIFT
  501 00000114 431A            ORRS             R2,R2,R3
  502 00000116 F382 8800       MSR              APSR,R2
  503 0000011A E006            BAL              DequeueDone
  504 0000011C         
  505 0000011C         DequeueSuccess
  506 0000011C         ;Clear C flag to show Success
  507 0000011C F3EF 8200       MRS              R2,APSR
  508 00000120 2320            MOVS             R3,#0x20
  509 00000122 061B            LSLS             R3,R3,#MSBSHIFT
  510 00000124 439A            BICS             R2,R2,R3
  511 00000126 F382 8800       MSR              APSR,R2
  512 0000012A         DequeueDone
  513 0000012A BD1E            POP              {R1 - R4, PC}
  514 0000012C         ;*******************************************************
                       ****************
  515 0000012C         PutStringSB
  516 0000012C         ;Subroutine that prevents overrun of the buffer capacity
                        specified in R1
  517 0000012C         ; this subroutine displays a null-terminated string to t
                       he terminal screen
  518 0000012C         ; from memory starting at the address in R0. It leaves t
                       he cursor positioned
  519 0000012C         ; after the last character of the string.
  520 0000012C         ;Input - R0 - Starting address of string to print.
  521 0000012C         ;Output - None
  522 0000012C         ; No registers change on return besides LR, PC, PSR.
  523 0000012C B507            PUSH             {R0 - R2, LR}
  524 0000012E         
  525 0000012E 2200            MOVS             R2,#0x00
  526 00000130 0001            MOVS             R1,R0       ;Move String locati
                                                            on to R1
  527 00000132         ;Loop loading chars and comparing to the null character.
                       
  528 00000132 7808    PutStrLoop
                               LDRB             R0,[R1,#0]
  529 00000134 1C49            ADDS             R1,R1,#1
  530 00000136 F7FF FFFE       BL               PutChar
  531 0000013A 4290            CMP              R0,R2       ;Compare char with 
                                                            null char.
  532 0000013C D000            BEQ              PutStrOut
  533 0000013E E7F8            BAL              PutStrLoop
  534 00000140         ;Restore registers and return
  535 00000140         PutStrOut
  536 00000140 BD07            POP              {R0 - R2, PC}
  537 00000142         ;*******************************************************
                       ****************
  538 00000142         Turn_On_LED
  539 00000142         ;Subroutine that turns on either the red LED, or the gre
                       en LED
  540 00000142         ;dependent on if the input is zero or not.
  541 00000142         ;Input - LEDSelect(R0) - 0 for red LED, otherwise green 
                       LED



ARM Macro Assembler    Page 14 Laboratory Exercise 13


  542 00000142         ;Output - None
  543 00000142         ;Modify - PSR, PC
  544 00000142 B403            PUSH             {R0, R1}
  545 00000144         ;Check if R0 is 0 or not for red or green LED
  546 00000144 2800            CMP              R0,#0
  547 00000146 D103            BNE              Turn_On_GRN
  548 00000148         ;Turn on the red LED
  549 00000148 4969            LDR              R1,=FGPIOE_BASE
  550 0000014A 486A            LDR              R0,=LED_RED_MASK
  551 0000014C 6088            STR              R0,[R1,#GPIO_PCOR_OFFSET]
  552 0000014E E002            BAL              Turn_On_Done
  553 00000150         Turn_On_GRN
  554 00000150         ;Turn on the green LED
  555 00000150 4969            LDR              R1,=FGPIOD_BASE
  556 00000152 486A            LDR              R0,=LED_GREEN_MASK
  557 00000154 6088            STR              R0,[R1,#GPIO_PCOR_OFFSET]
  558 00000156         Turn_On_Done
  559 00000156 BC03            POP              {R0, R1}
  560 00000158 4770            BX               LR
  561 0000015A         ;*******************************************************
                       ****************
  562 0000015A         Turn_Off_LED
  563 0000015A         ;Subroutine that turns off either the red LED, or the gr
                       een LED
  564 0000015A         ;dependent on if the input is zero or not.
  565 0000015A         ;Input - LEDSelect(R0) - 0 for red LED, otherwise green 
                       LED
  566 0000015A         ;Output - None
  567 0000015A         ;Modify - PSR, PC
  568 0000015A B403            PUSH             {R0, R1}
  569 0000015C         ;Check if R0 is 0 or not for red or green LED
  570 0000015C 2800            CMP              R0,#0
  571 0000015E D103            BNE              Turn_Off_GRN
  572 00000160         ;Turn on the red LED
  573 00000160 4963            LDR              R1,=FGPIOE_BASE
  574 00000162 4864            LDR              R0,=LED_RED_MASK
  575 00000164 6048            STR              R0,[R1,#GPIO_PSOR_OFFSET]
  576 00000166 E002            BAL              Turn_Off_Done
  577 00000168         Turn_Off_GRN
  578 00000168         ;Turn on the green LED
  579 00000168 4963            LDR              R1,=FGPIOD_BASE
  580 0000016A 4864            LDR              R0,=LED_GREEN_MASK
  581 0000016C 6048            STR              R0,[R1,#GPIO_PSOR_OFFSET]
  582 0000016E         Turn_Off_Done
  583 0000016E BC03            POP              {R0, R1}
  584 00000170 4770            BX               LR
  585 00000172         ;*******************************************************
                       ****************
  586 00000172         Init_GPIO_LED
  587 00000172         ;Subroutine to initialize the two LEDs on the KL46Z boar
                       d.
  588 00000172         ;Green LED is found at PORT D pin 5
  589 00000172         ;Red LED is found at PORT E pin 29
  590 00000172         ;Input - None
  591 00000172         ;Output - None
  592 00000172         ; No registers change on return besides LR, PC, PSR.
  593 00000172 B407            PUSH             {R0 - R2}
  594 00000174         ;Enable clock on port D and E modules
  595 00000174 4A62            LDR              R2,=SIM_SCGC5



ARM Macro Assembler    Page 15 Laboratory Exercise 13


  596 00000176 4963            LDR              R1,=(SIM_SCGC5_PORTD_MASK :OR: 
SIM_SCGC5_PORTE_MASK)
  597 00000178 6810            LDR              R0,[R2,#0]
  598 0000017A 4308            ORRS             R0,R0,R1
  599 0000017C 6010            STR              R0,[R2,#0]
  600 0000017E         ;Select PORT E PIN 29 for GPIO to red LED
  601 0000017E 4A62            LDR              R2,=PORTE_BASE
  602 00000180 4862            LDR              R0,=SET_PTE29_GPIO
  603 00000182 6750            STR              R0,[R2,#PORTE_PCR29_OFFSET]
  604 00000184         ;Select PORT D PIN 5 for GPIO to green LED
  605 00000184 4A62            LDR              R2,=PORTD_BASE
  606 00000186 4861            LDR              R0,=SET_PTD5_GPIO
  607 00000188 6150            STR              R0,[R2,#PORTD_PCR5_OFFSET]
  608 0000018A         ;Select data direction for LED pins
  609 0000018A 4A5B            LDR              R2,=FGPIOD_BASE
  610 0000018C 495B            LDR              R1,=LED_PORTD_MASK
  611 0000018E 6151            STR              R1,[R2,#GPIO_PDDR_OFFSET]
  612 00000190 4A57            LDR              R2,=FGPIOE_BASE
  613 00000192 4958            LDR              R1,=LED_PORTE_MASK
  614 00000194 6151            STR              R1,[R2,#GPIO_PDDR_OFFSET]
  615 00000196 BC07            POP              {R0 - R2}
  616 00000198 4770            BX               LR
  617 0000019A         
  618 0000019A         ;*******************************************************
                       ****************
  619 0000019A         Init_UART0_IRQ
  620 0000019A         ;Subroutine to initialize UART0.
  621 0000019A         ;UART0 is initialized for interrupt serial IO through Po
                       rt A pins 1 & 2
  622 0000019A         ;using format: 8 data bits, no parity, one stop bit at 9
                       600 baud.
  623 0000019A         ;Input - None
  624 0000019A         ;Output - None
  625 0000019A         ; No registers change on return besides LR, PC, PSR.
  626 0000019A B50E            PUSH             {R1 - R3, LR}
  627 0000019C         ;Select MCGPLLCLK / 2 as UART0 clock source
  628 0000019C 495D            LDR              R1,=SIM_SOPT2
  629 0000019E 4A5E            LDR              R2,=SIM_SOPT2_UART0SRC_MASK
  630 000001A0 680B            LDR              R3,[R1,#0]
  631 000001A2 4393            BICS             R3,R3,R2
  632 000001A4 4A5D            LDR              R2,=SIM_SOPT2_UART0_MCGPLLCLK_D
IV2
  633 000001A6 4313            ORRS             R3,R3,R2
  634 000001A8 600B            STR              R3,[R1,#0]
  635 000001AA         ;Enable external connection for UART0
  636 000001AA 495D            LDR              R1,=SIM_SOPT5
  637 000001AC 4A5D            LDR              R2,=SIM_SOPT5_UART0_EXTERN_MASK
_CLEAR
  638 000001AE 680B            LDR              R3,[R1,#0]
  639 000001B0 4393            BICS             R3,R3,R2
  640 000001B2 600B            STR              R3,[R1,#0]
  641 000001B4         ;Enable clock for UART0 module
  642 000001B4 495C            LDR              R1,=SIM_SCGC4
  643 000001B6 4A5D            LDR              R2,=SIM_SCGC4_UART0_MASK
  644 000001B8 680B            LDR              R3,[R1,#0]
  645 000001BA 4313            ORRS             R3,R3,R2
  646 000001BC 600B            STR              R3,[R1,#0]
  647 000001BE         ;Enable clock for Port A module
  648 000001BE 4950            LDR              R1,=SIM_SCGC5



ARM Macro Assembler    Page 16 Laboratory Exercise 13


  649 000001C0 4A5B            LDR              R2,=SIM_SCGC5_PORTA_MASK
  650 000001C2 680B            LDR              R3,[R1,#0]
  651 000001C4 4313            ORRS             R3,R3,R2
  652 000001C6 600B            STR              R3,[R1,#0]
  653 000001C8         ;Connect Port A Pin 1 (PTA1) to UART0 Rx (J1 Pin 02)
  654 000001C8 495A            LDR              R1,=PORTA_PCR1
  655 000001CA 4A5B            LDR              R2,=PORT_PCR_SET_PTA1_UART0_RX
  656 000001CC 600A            STR              R2,[R1,#0]
  657 000001CE         ;Connect Port A Pin 2 (PTA2) to UART0 Rx (J1 Pin 04)
  658 000001CE 495B            LDR              R1,=PORTA_PCR2
  659 000001D0 4A59            LDR              R2,=PORT_PCR_SET_PTA2_UART0_TX
  660 000001D2 600A            STR              R2,[R1,#0]
  661 000001D4         ;*******************************************************
                       *****
  662 000001D4         ;Disable UARTo receiver and transmitter
  663 000001D4 495A            LDR              R1,=UART0_BASE
  664 000001D6 220C            MOVS             R2,#UART0_C2_T_R
  665 000001D8 78CB            LDRB             R3,[R1,#UART0_C2_OFFSET]
  666 000001DA 4393            BICS             R3,R3,R2
  667 000001DC 70CB            STRB             R3,[R1,#UART0_C2_OFFSET]
  668 000001DE         ;Set UART0 for 9600 baud, 8n1 protocol
  669 000001DE 2201            MOVS             R2,#UART0_BDH_9600
  670 000001E0 700A            STRB             R2,[R1,#UART0_BDH_OFFSET]
  671 000001E2 2238            MOVS             R2,#UART0_BDL_9600
  672 000001E4 704A            STRB             R2,[R1,#UART0_BDL_OFFSET]
  673 000001E6 2200            MOVS             R2,#UART0_C1_8N1
  674 000001E8 708A            STRB             R2,[R1,#UART0_C1_OFFSET]
  675 000001EA 2200            MOVS             R2,#UART0_C3_NO_TXINV
  676 000001EC 718A            STRB             R2,[R1,#UART0_C3_OFFSET]
  677 000001EE 220F            MOVS             R2,#UART0_C4_NO_MATCH_OSR_16
  678 000001F0 728A            STRB             R2,[R1,#UART0_C4_OFFSET]
  679 000001F2         
  680 000001F2 2200            MOVS             R2,#UART0_C5_NO_DMA_SSR_SYNC
  681 000001F4 72CA            STRB             R2,[R1,#UART0_C5_OFFSET]
  682 000001F6 221F            MOVS             R2,#UART0_S1_CLEAR_FLAGS
  683 000001F8 710A            STRB             R2,[R1,#UART0_S1_OFFSET]
  684 000001FA 22C0            MOVS             R2,#UART0_S2_NO_RXINV_BRK10_NO_
LBKDETECT_CLEAR_FLAGS
  685 000001FC 714A            STRB             R2,[R1,#UART0_S2_OFFSET]
  686 000001FE         ;Enables UART0 receiver and transmitter
  687 000001FE 222C            MOVS             R2,#UART0_C2_T_RI
  688 00000200 70CA            STRB             R2,[R1,#UART0_C2_OFFSET]
  689 00000202         ;Set UART0 IRQ Priority
  690 00000202 4950            LDR              R1,=UART0_IPR
  691 00000204 4A50            LDR              R2,=NVIC_IPR_UART0_PRI_3
  692 00000206 680B            LDR              R3,[R1,#0]
  693 00000208 4313            ORRS             R3,R3,R2
  694 0000020A 600B            STR              R3,[R1,#0]
  695 0000020C         ;Clear any pending interrupts
  696 0000020C 484F            LDR              R0,=NVIC_ICPR
  697 0000020E 4950            LDR              R1,=NVIC_ICPR_UART0_MASK
  698 00000210 6001            STR              R1,[R0,#0]
  699 00000212         ;Unmask interrupts for UART0
  700 00000212 4850            LDR              R0,=NVIC_ISER
  701 00000214 494E            LDR              R1,=NVIC_ISER_UART0_MASK
  702 00000216 6001            STR              R1,[R0,#0]
  703 00000218         
  704 00000218         ;Initialize Input and Output Queues
  705 00000218 484F            LDR              R0,=RxQBuffer



ARM Macro Assembler    Page 17 Laboratory Exercise 13


  706 0000021A 4950            LDR              R1,=RxQRecord
  707 0000021C 2250            MOVS             R2,#Q_BUF_SZ
  708 0000021E F7FF FF3C       BL               InitQueue
  709 00000222 484F            LDR              R0,=TxQBuffer
  710 00000224 494F            LDR              R1,=TxQRecord
  711 00000226 F7FF FF38       BL               InitQueue
  712 0000022A BD0E            POP              {R1 - R3, PC}
  713 0000022C         ;*******************************************************
                       *********
  714 0000022C         GetChar
  715 0000022C         ;Get a character from the recieve queue and places it in
                       to R0.
  716 0000022C         ;Input - None
  717 0000022C         ;Output - R0
  718 0000022C         ;Only Output register (R0) and LR, PC, & PSR are changed
                       
  719 0000022C B502            PUSH             {R1, LR}
  720 0000022E 494B            LDR              R1,=RxQRecord
  721 00000230 B672    GetCharLoop
                               CPSID            I
  722 00000232 F7FF FF5C       BL               Dequeue
  723 00000236 B662            CPSIE            I
  724 00000238 BF00            NOP
  725 0000023A D2F9            BCS              GetCharLoop
  726 0000023C BD02            POP              {R1, PC}
  727 0000023E         ;*******************************************************
                       *********
  728 0000023E         PutChar
  729 0000023E         ;Place the character in R0 into the transmit queue, and 
                       enable
  730 0000023E         ; transmit interrupts.
  731 0000023E         ;Input - R0
  732 0000023E         ;Output - None
  733 0000023E         ;Only LR, PC, & PSR are changed on return.
  734 0000023E B506            PUSH             {R1, R2, LR}
  735 00000240 4948            LDR              R1,=TxQRecord
  736 00000242 B672    PutCharLoop
                               CPSID            I
  737 00000244 F7FF FF33       BL               Enqueue
  738 00000248 B662            CPSIE            I
  739 0000024A BF00            NOP
  740 0000024C D2F9            BCS              PutCharLoop
  741 0000024E         ;Enable Transmit interrupts
  742 0000024E 493C            LDR              R1,=UART0_BASE
  743 00000250 22AC            MOVS             R2,#UART0_C2_TI_RI
  744 00000252 70CA            STRB             R2,[R1,#UART0_C2_OFFSET]
  745 00000254 BD06            POP              {R1, R2, PC}
  746 00000256         ;*******************************************************
                       *********
  747 00000256         UART0_IRQHandler
  748 00000256         UART0_ISR
  749 00000256         ;Subroutine to handle transmit and recieve interrupts ge
                       nerated
  750 00000256         ;by the UART0. Recieve interrupts are always enabled, tr
                       ansmit
  751 00000256         ;interrupts are disabled if there is nothing to transmit
                       .
  752 00000256         ;No Input or Output, Nothing modified on return.
  753 00000256 B672            CPSID            I



ARM Macro Assembler    Page 18 Laboratory Exercise 13


  754 00000258 B500            PUSH             {LR}
  755 0000025A         ;Determine source of interrupt
  756 0000025A 4B39            LDR              R3,=UART0_BASE
  757 0000025C 78DA            LDRB             R2,[R3,#UART0_C2_OFFSET]
  758 0000025E 2AAC            CMP              R2,#UART0_C2_TI_RI
  759 00000260 D10C            BNE              UART0_ISR_REC
  760 00000262         ;Check if TDRE is set
  761 00000262 791A            LDRB             R2,[R3,#UART0_S1_OFFSET]
  762 00000264 217F            MOVS             R1,#0x7F    ;Set mask for other
                                                             bits in S1
  763 00000266 438A            BICS             R2,R2,R1    ;clear other bits i
                                                            n S1
  764 00000268 D008            BEQ              UART0_ISR_REC
  765 0000026A         ;TDRE is set, dequeue a character and put it in UART0_D
  766 0000026A 493E            LDR              R1,=TxQRecord
  767 0000026C F7FF FF3F       BL               Dequeue
  768 00000270 D201            BCS              UART0_ISR_DQ_FAIL
  769 00000272         ;Got a char from Dequeue, put it into data register
  770 00000272 71D8            STRB             R0,[R3,#UART0_D_OFFSET]
  771 00000274 E00A            BAL              UART0_ISR_DONE
  772 00000276         UART0_ISR_DQ_FAIL
  773 00000276         ;Nothing found to dequeue, disable transmit interrupts
  774 00000276 222C            MOVS             R2,#UART0_C2_T_RI
  775 00000278 70DA            STRB             R2,[R3,#UART0_C2_OFFSET]
  776 0000027A E007            BAL              UART0_ISR_DONE
  777 0000027C         UART0_ISR_REC
  778 0000027C 791A            LDRB             R2,[R3,#UART_S1_OFFSET]
  779 0000027E 21DF            MOVS             R1,#0xDF
  780 00000280 438A            BICS             R2,R2,R1
  781 00000282 D003            BEQ              UART0_ISR_DONE ;Not a Rec inter
                                                            rupt, exit
  782 00000284         ;Assume if we got here, we are looking to take in a char
                       acter
  783 00000284 79D8            LDRB             R0,[R3,#UART0_D_OFFSET]
  784 00000286 4935            LDR              R1,=RxQRecord
  785 00000288 F7FF FF11       BL               Enqueue
  786 0000028C         UART0_ISR_DONE
  787 0000028C B662            CPSIE            I
  788 0000028E BD00            POP              {PC}
  789 00000290         ;*******************************************************
                       *********
  790 00000290         PIT_ISR
  791 00000290         PIT_IRQHandler
  792 00000290         ;Subroutine to handle interrupts generated from the PIT 
                       Interrupts
  793 00000290         ;are generated when the timer hits zero. Each time, the 
                       variable
  794 00000290         ;Count is incremented by one.
  795 00000290         
  796 00000290 B672            CPSID            I
  797 00000292         ;Check if clock in enabled RunStopWatch != 0
  798 00000292 4835            LDR              R0,=RunStopWatch
  799 00000294 7800            LDRB             R0,[R0,#0]
  800 00000296 2800            CMP              R0,#0
  801 00000298 D003            BEQ              PIT_ISR_CLEAR ;disabled; clear 
                                                            interrupt
  802 0000029A         
  803 0000029A         ;Increment Count and store back in memory
  804 0000029A 4834            LDR              R0,=Count



ARM Macro Assembler    Page 19 Laboratory Exercise 13


  805 0000029C 6801            LDR              R1,[R0,#0]
  806 0000029E 1C49            ADDS             R1,R1,#1
  807 000002A0 6001            STR              R1,[R0,#0]
  808 000002A2         PIT_ISR_CLEAR
  809 000002A2         ;Clear Interrupt flag
  810 000002A2 4937            LDR              R1,=PIT_TFLG0
  811 000002A4 4837            LDR              R0,=PIT_TFLG_TIF_MASK
  812 000002A6 6008            STR              R0,[R1,#0]
  813 000002A8 B662            CPSIE            I
  814 000002AA 4770            BX               LR
  815 000002AC         
  816 000002AC         ;*******************************************************
                       *********
  817 000002AC         Init_PIT_IRQ
  818 000002AC         ;Subroutine to initialize the PIT module to send an inte
                       rrupt
  819 000002AC         ;every 0.01s. This is done in connection to the 24Mhz mo
                       dule clock
  820 000002AC         ;and 48Mhz core clock of the KL46
  821 000002AC B407            PUSH             {R0 - R2}
  822 000002AE         ;Enable clock for PIT module
  823 000002AE 4936            LDR              R1,=SIM_SCGC6
  824 000002B0 4A36            LDR              R2,=SIM_SCGC6_PIT_MASK
  825 000002B2 6808            LDR              R0,[R1,#0]
  826 000002B4 4310            ORRS             R0,R0,R2
  827 000002B6 6008            STR              R0,[R1,#0]
  828 000002B8         ;Disable PIT timer 0
  829 000002B8 4935            LDR              R1,=PIT_CH0_BASE
  830 000002BA 4A32            LDR              R2,=PIT_TCTRL_TEN_MASK
  831 000002BC 6808            LDR              R0,[R1,#0]
  832 000002BE 4390            BICS             R0,R0,R2
  833 000002C0 6008            STR              R0,[R1,#0]
  834 000002C2         ;Set PIT Interrupt Priority
  835 000002C2 4934            LDR              R1,=PIT_IPR
  836 000002C4 4A34            LDR              R2,=NVIC_IPR_PIT_MASK
  837 000002C6 6808            LDR              R0,[R1,#0]
  838 000002C8 4390            BICS             R0,R0,R2
  839 000002CA 6008            STR              R0,[R1,#0]
  840 000002CC         ;Clear any pending interrupts
  841 000002CC 491F            LDR              R1,=NVIC_ICPR
  842 000002CE 4833            LDR              R0,=NVIC_ICPR_PIT_MASK
  843 000002D0 6008            STR              R0,[R1,#0]
  844 000002D2         ;Unmask PIT interrupts
  845 000002D2 4920            LDR              R1,=NVIC_ISER
  846 000002D4 4831            LDR              R0,=NVIC_ISER_PIT_MASK
  847 000002D6 6008            STR              R0,[R1,#0]
  848 000002D8         ;Enable PIT module
  849 000002D8 4931            LDR              R1,=PIT_BASE
  850 000002DA 482A            LDR              R0,=PIT_MCR_EN_FRZ
  851 000002DC 6008            STR              R0,[R1,#PIT_MCR_OFFSET]
  852 000002DE         ;Set PIT timer 0 period for 0.001 s
  853 000002DE 492C            LDR              R1,=PIT_CH0_BASE
  854 000002E0 4830            LDR              R0,=PIT_LDVAL_10ms
  855 000002E2 6008            STR              R0,[R1,#PIT_LDVAL_OFFSET]
  856 000002E4         ;Enable PIT timer 0 interrupt
  857 000002E4 4830            LDR              R0,=PIT_TCTRL_CH_IE
  858 000002E6 6088            STR              R0,[R1,#PIT_TCTRL_OFFSET]
  859 000002E8         
  860 000002E8 BC07            POP              {R0 - R2}



ARM Macro Assembler    Page 20 Laboratory Exercise 13


  861 000002EA 4770            BX               LR
  862 000002EC         ;>>>>>   end subroutine code <<<<<
  863 000002EC                 ALIGN
  864 000002EC         ;*******************************************************
                       ***************
  865 000002EC         ;Constants
  866 000002EC 0000000F 
              F80FF100 
              20000000 
              F80FF0C0 
              00000020 
              40048038 
              00003000 
              4004D000 
              01000100 
              4004C000 
              40048004 
              0C000000 
              04010000 
              40048010 
              00010007 
              40048034 
              00000400 
              00000200 
              40049004 
              01000200 
              40049008 
              4006A000 
              E000E40C 
              000000C0 
              E000E280 
              00001000 
              E000E100 
              00000000 
              00000000 
              00000000 
              00000000 
              00000000 
              00000000 
              00000000 
              00000000 
              00000000 
              00000000 
              4003710C 
              00000001 
              4004803C 
              00800000 
              40037100 
              E000E414 
              00C00000 
              00400000 
              40037000 
              0003A97F 
              00000003         AREA             MyConst,DATA,READONLY
  867 00000000         ;>>>>> begin constants here <<<<<
  868 00000000         
  869 00000000         ;>>>>>   end constants here <<<<<
  870 00000000         ;*******************************************************
                       ***************



ARM Macro Assembler    Page 21 Laboratory Exercise 13


  871 00000000         ;Variables
  872 00000000                 AREA             MyData,DATA,READWRITE
  873 00000000                 EXPORT           RunStopWatch
  874 00000000                 EXPORT           Count
  875 00000000         ;>>>>> begin variables here <<<<<
  876 00000000                 ALIGN
  877 00000000 00 00 00 
              00 00 00 
              00 00 00 
              00 00 00 
              00 00 00 
              00 00 00 RxQRecord
                               SPACE            Q_REC_SZ
  878 00000012 00 00 00 
              00 00 00 
              00 00 00 
              00 00 00 
              00 00 00 
              00 00 00 
              00 00 00 
              00 00 00 
              00 00 00 
              00 00 00 
              00 00 00 
              00 00 00 
              00 00 00 
              00 00 00 
              00 00 00 
              00 00 00 
              00 00 00 
              00 00 00 
              00 00 00 
              00 00 00 
              00 00 00 
              00 00 00 
              00 00 00 
              00 00 00 
              00 00 00 
              00 00 00 
              00 00    RxQBuffer
                               SPACE            Q_BUF_SZ
  879 00000062 00 00           ALIGN
  880 00000064 00 00 00 
              00 00 00 
              00 00 00 
              00 00 00 
              00 00 00 
              00 00 00 TxQRecord
                               SPACE            Q_REC_SZ
  881 00000076 00 00 00 
              00 00 00 
              00 00 00 
              00 00 00 
              00 00 00 
              00 00 00 
              00 00 00 
              00 00 00 
              00 00 00 
              00 00 00 



ARM Macro Assembler    Page 22 Laboratory Exercise 13


              00 00 00 
              00 00 00 
              00 00 00 
              00 00 00 
              00 00 00 
              00 00 00 
              00 00 00 
              00 00 00 
              00 00 00 
              00 00 00 
              00 00 00 
              00 00 00 
              00 00 00 
              00 00 00 
              00 00 00 
              00 00 00 
              00 00    TxQBuffer
                               SPACE            Q_BUF_SZ
  882 000000C6 00 00           ALIGN
  883 000000C8 00      RunStopWatch
                               SPACE            1
  884 000000C9 00 00 00        ALIGN
  885 000000CC 00 00 00 
              00       Count   SPACE            4
  886 000000D0         ;>>>>>   end variables here <<<<<
  887 000000D0                 END
Command Line: --debug --xref --diag_suppress=9931 --cpu=Cortex-M0+ --apcs=inter
work --depend=.\objects\lab12_asm.d -o.\objects\lab12_asm.o -IC:\Users\Luke\Doc
uments\CMPE250\lab12\RTE -IC:\Keil_v5\ARM\PACK\ARM\CMSIS\4.5.0\CMSIS\Include -I
C:\Keil_v5\ARM\PACK\Keil\Kinetis_KLxx_DFP\1.11.0\Device\Include --predefine="__
EVAL SETA 1" --predefine="__UVISION_VERSION SETA 521" --predefine="_RTE_ SETA 1
" --predefine="MKL46Z256xxx4 SETA 1" --list=.\listings\lab12_asm.lst lab12_ASM.
s



ARM Macro Assembler    Page 1 Alphabetic symbol ordering
Relocatable symbols

DIVU 00000038

Symbol: DIVU
   Definitions
      At line 320 in file lab12_ASM.s
   Uses
      At line 291 in file lab12_ASM.s
Comment: DIVU used once
Dequeue 000000EE

Symbol: Dequeue
   Definitions
      At line 467 in file lab12_ASM.s
   Uses
      At line 722 in file lab12_ASM.s
      At line 767 in file lab12_ASM.s

DequeueDone 0000012A

Symbol: DequeueDone
   Definitions
      At line 512 in file lab12_ASM.s
   Uses
      At line 503 in file lab12_ASM.s
Comment: DequeueDone used once
DequeueEmpty 0000010C

Symbol: DequeueEmpty
   Definitions
      At line 496 in file lab12_ASM.s
   Uses
      At line 480 in file lab12_ASM.s
Comment: DequeueEmpty used once
DequeueStorePTR 00000106

Symbol: DequeueStorePTR
   Definitions
      At line 491 in file lab12_ASM.s
   Uses
      At line 489 in file lab12_ASM.s
Comment: DequeueStorePTR used once
DequeueSuccess 0000011C

Symbol: DequeueSuccess
   Definitions
      At line 505 in file lab12_ASM.s
   Uses
      At line 494 in file lab12_ASM.s
Comment: DequeueSuccess used once
Enqueue 000000AE

Symbol: Enqueue
   Definitions
      At line 417 in file lab12_ASM.s
   Uses
      At line 737 in file lab12_ASM.s
      At line 785 in file lab12_ASM.s

EnqueueDone 000000EC



ARM Macro Assembler    Page 2 Alphabetic symbol ordering
Relocatable symbols


Symbol: EnqueueDone
   Definitions
      At line 464 in file lab12_ASM.s
   Uses
      At line 455 in file lab12_ASM.s
Comment: EnqueueDone used once
EnqueueFull 000000CE

Symbol: EnqueueFull
   Definitions
      At line 448 in file lab12_ASM.s
   Uses
      At line 432 in file lab12_ASM.s
Comment: EnqueueFull used once
EnqueueStorePTR 000000C8

Symbol: EnqueueStorePTR
   Definitions
      At line 443 in file lab12_ASM.s
   Uses
      At line 441 in file lab12_ASM.s
Comment: EnqueueStorePTR used once
EnqueueSuccess 000000DE

Symbol: EnqueueSuccess
   Definitions
      At line 457 in file lab12_ASM.s
   Uses
      At line 446 in file lab12_ASM.s
Comment: EnqueueSuccess used once
GetChar 0000022C

Symbol: GetChar
   Definitions
      At line 714 in file lab12_ASM.s
   Uses
      At line 269 in file lab12_ASM.s
Comment: GetChar used once
GetCharLoop 00000230

Symbol: GetCharLoop
   Definitions
      At line 721 in file lab12_ASM.s
   Uses
      At line 725 in file lab12_ASM.s
Comment: GetCharLoop used once
InitQueue 0000009A

Symbol: InitQueue
   Definitions
      At line 393 in file lab12_ASM.s
   Uses
      At line 708 in file lab12_ASM.s
      At line 711 in file lab12_ASM.s

Init_GPIO_LED 00000172

Symbol: Init_GPIO_LED



ARM Macro Assembler    Page 3 Alphabetic symbol ordering
Relocatable symbols

   Definitions
      At line 586 in file lab12_ASM.s
   Uses
      At line 267 in file lab12_ASM.s
Comment: Init_GPIO_LED used once
Init_PIT_IRQ 000002AC

Symbol: Init_PIT_IRQ
   Definitions
      At line 817 in file lab12_ASM.s
   Uses
      At line 275 in file lab12_ASM.s
Comment: Init_PIT_IRQ used once
Init_UART0_IRQ 0000019A

Symbol: Init_UART0_IRQ
   Definitions
      At line 619 in file lab12_ASM.s
   Uses
      At line 266 in file lab12_ASM.s
Comment: Init_UART0_IRQ used once
LOOP_DIV 00000040

Symbol: LOOP_DIV
   Definitions
      At line 334 in file lab12_ASM.s
   Uses
      At line 339 in file lab12_ASM.s
Comment: LOOP_DIV used once
MyCode 00000000

Symbol: MyCode
   Definitions
      At line 264 in file lab12_ASM.s
   Uses
      None
Comment: MyCode unused
PIT_IRQHandler 00000290

Symbol: PIT_IRQHandler
   Definitions
      At line 791 in file lab12_ASM.s
   Uses
      At line 276 in file lab12_ASM.s
Comment: PIT_IRQHandler used once
PIT_ISR 00000290

Symbol: PIT_ISR
   Definitions
      At line 790 in file lab12_ASM.s
   Uses
      None
Comment: PIT_ISR unused
PIT_ISR_CLEAR 000002A2

Symbol: PIT_ISR_CLEAR
   Definitions
      At line 808 in file lab12_ASM.s
   Uses



ARM Macro Assembler    Page 4 Alphabetic symbol ordering
Relocatable symbols

      At line 801 in file lab12_ASM.s
Comment: PIT_ISR_CLEAR used once
PutChar 0000023E

Symbol: PutChar
   Definitions
      At line 728 in file lab12_ASM.s
   Uses
      At line 270 in file lab12_ASM.s
      At line 309 in file lab12_ASM.s
      At line 315 in file lab12_ASM.s
      At line 386 in file lab12_ASM.s
      At line 530 in file lab12_ASM.s

PutCharLoop 00000242

Symbol: PutCharLoop
   Definitions
      At line 736 in file lab12_ASM.s
   Uses
      At line 740 in file lab12_ASM.s
Comment: PutCharLoop used once
PutNumCont 00000012

Symbol: PutNumCont
   Definitions
      At line 294 in file lab12_ASM.s
   Uses
      At line 301 in file lab12_ASM.s
Comment: PutNumCont used once
PutNumEndTrans 0000002C

Symbol: PutNumEndTrans
   Definitions
      At line 311 in file lab12_ASM.s
   Uses
      At line 307 in file lab12_ASM.s
Comment: PutNumEndTrans used once
PutNumHex 00000074

Symbol: PutNumHex
   Definitions
      At line 359 in file lab12_ASM.s
   Uses
      At line 271 in file lab12_ASM.s
Comment: PutNumHex used once
PutNumHexDone 00000098

Symbol: PutNumHexDone
   Definitions
      At line 390 in file lab12_ASM.s
   Uses
      At line 388 in file lab12_ASM.s
Comment: PutNumHexDone used once
PutNumHexLoop 0000007A

Symbol: PutNumHexLoop
   Definitions
      At line 370 in file lab12_ASM.s



ARM Macro Assembler    Page 5 Alphabetic symbol ordering
Relocatable symbols

   Uses
      At line 389 in file lab12_ASM.s
Comment: PutNumHexLoop used once
PutNumHexNumber 0000008C

Symbol: PutNumHexNumber
   Definitions
      At line 382 in file lab12_ASM.s
   Uses
      At line 379 in file lab12_ASM.s
Comment: PutNumHexNumber used once
PutNumHexPrint 0000008E

Symbol: PutNumHexPrint
   Definitions
      At line 384 in file lab12_ASM.s
   Uses
      At line 381 in file lab12_ASM.s
Comment: PutNumHexPrint used once
PutNumLoop 00000008

Symbol: PutNumLoop
   Definitions
      At line 290 in file lab12_ASM.s
   Uses
      At line 296 in file lab12_ASM.s
Comment: PutNumLoop used once
PutNumPrint 0000001E

Symbol: PutNumPrint
   Definitions
      At line 304 in file lab12_ASM.s
   Uses
      At line 300 in file lab12_ASM.s
      At line 310 in file lab12_ASM.s

PutNumRtn 00000036

Symbol: PutNumRtn
   Definitions
      At line 317 in file lab12_ASM.s
   Uses
      At line 313 in file lab12_ASM.s
Comment: PutNumRtn used once
PutNumStopDiv 00000018

Symbol: PutNumStopDiv
   Definitions
      At line 298 in file lab12_ASM.s
   Uses
      At line 293 in file lab12_ASM.s
Comment: PutNumStopDiv used once
PutNumU 00000000

Symbol: PutNumU
   Definitions
      At line 279 in file lab12_ASM.s
   Uses
      At line 272 in file lab12_ASM.s



ARM Macro Assembler    Page 6 Alphabetic symbol ordering
Relocatable symbols

Comment: PutNumU used once
PutStrLoop 00000132

Symbol: PutStrLoop
   Definitions
      At line 528 in file lab12_ASM.s
   Uses
      At line 533 in file lab12_ASM.s
Comment: PutStrLoop used once
PutStrOut 00000140

Symbol: PutStrOut
   Definitions
      At line 535 in file lab12_ASM.s
   Uses
      At line 532 in file lab12_ASM.s
Comment: PutStrOut used once
PutStringSB 0000012C

Symbol: PutStringSB
   Definitions
      At line 515 in file lab12_ASM.s
   Uses
      At line 265 in file lab12_ASM.s
Comment: PutStringSB used once
RETURN_0 00000062

Symbol: RETURN_0
   Definitions
      At line 351 in file lab12_ASM.s
   Uses
      At line 331 in file lab12_ASM.s
Comment: RETURN_0 used once
RETURN_DIV 0000004C

Symbol: RETURN_DIV
   Definitions
      At line 341 in file lab12_ASM.s
   Uses
      At line 335 in file lab12_ASM.s
      At line 338 in file lab12_ASM.s

Turn_Off_Done 0000016E

Symbol: Turn_Off_Done
   Definitions
      At line 582 in file lab12_ASM.s
   Uses
      At line 576 in file lab12_ASM.s
Comment: Turn_Off_Done used once
Turn_Off_GRN 00000168

Symbol: Turn_Off_GRN
   Definitions
      At line 577 in file lab12_ASM.s
   Uses
      At line 571 in file lab12_ASM.s
Comment: Turn_Off_GRN used once
Turn_Off_LED 0000015A



ARM Macro Assembler    Page 7 Alphabetic symbol ordering
Relocatable symbols


Symbol: Turn_Off_LED
   Definitions
      At line 562 in file lab12_ASM.s
   Uses
      At line 274 in file lab12_ASM.s
Comment: Turn_Off_LED used once
Turn_On_Done 00000156

Symbol: Turn_On_Done
   Definitions
      At line 558 in file lab12_ASM.s
   Uses
      At line 552 in file lab12_ASM.s
Comment: Turn_On_Done used once
Turn_On_GRN 00000150

Symbol: Turn_On_GRN
   Definitions
      At line 553 in file lab12_ASM.s
   Uses
      At line 547 in file lab12_ASM.s
Comment: Turn_On_GRN used once
Turn_On_LED 00000142

Symbol: Turn_On_LED
   Definitions
      At line 538 in file lab12_ASM.s
   Uses
      At line 273 in file lab12_ASM.s
Comment: Turn_On_LED used once
UART0_IRQHandler 00000256

Symbol: UART0_IRQHandler
   Definitions
      At line 747 in file lab12_ASM.s
   Uses
      At line 268 in file lab12_ASM.s
Comment: UART0_IRQHandler used once
UART0_ISR 00000256

Symbol: UART0_ISR
   Definitions
      At line 748 in file lab12_ASM.s
   Uses
      None
Comment: UART0_ISR unused
UART0_ISR_DONE 0000028C

Symbol: UART0_ISR_DONE
   Definitions
      At line 786 in file lab12_ASM.s
   Uses
      At line 771 in file lab12_ASM.s
      At line 776 in file lab12_ASM.s
      At line 781 in file lab12_ASM.s

UART0_ISR_DQ_FAIL 00000276




ARM Macro Assembler    Page 8 Alphabetic symbol ordering
Relocatable symbols

Symbol: UART0_ISR_DQ_FAIL
   Definitions
      At line 772 in file lab12_ASM.s
   Uses
      At line 768 in file lab12_ASM.s
Comment: UART0_ISR_DQ_FAIL used once
UART0_ISR_REC 0000027C

Symbol: UART0_ISR_REC
   Definitions
      At line 777 in file lab12_ASM.s
   Uses
      At line 759 in file lab12_ASM.s
      At line 764 in file lab12_ASM.s

52 symbols



ARM Macro Assembler    Page 1 Alphabetic symbol ordering
Relocatable symbols

MyConst 00000000

Symbol: MyConst
   Definitions
      At line 866 in file lab12_ASM.s
   Uses
      None
Comment: MyConst unused
1 symbol



ARM Macro Assembler    Page 1 Alphabetic symbol ordering
Relocatable symbols

Count 000000CC

Symbol: Count
   Definitions
      At line 885 in file lab12_ASM.s
   Uses
      At line 804 in file lab12_ASM.s
      At line 874 in file lab12_ASM.s

MyData 00000000

Symbol: MyData
   Definitions
      At line 872 in file lab12_ASM.s
   Uses
      None
Comment: MyData unused
RunStopWatch 000000C8

Symbol: RunStopWatch
   Definitions
      At line 883 in file lab12_ASM.s
   Uses
      At line 798 in file lab12_ASM.s
      At line 873 in file lab12_ASM.s

RxQBuffer 00000012

Symbol: RxQBuffer
   Definitions
      At line 878 in file lab12_ASM.s
   Uses
      At line 705 in file lab12_ASM.s
Comment: RxQBuffer used once
RxQRecord 00000000

Symbol: RxQRecord
   Definitions
      At line 877 in file lab12_ASM.s
   Uses
      At line 706 in file lab12_ASM.s
      At line 720 in file lab12_ASM.s
      At line 784 in file lab12_ASM.s

TxQBuffer 00000076

Symbol: TxQBuffer
   Definitions
      At line 881 in file lab12_ASM.s
   Uses
      At line 709 in file lab12_ASM.s
Comment: TxQBuffer used once
TxQRecord 00000064

Symbol: TxQRecord
   Definitions
      At line 880 in file lab12_ASM.s
   Uses
      At line 710 in file lab12_ASM.s



ARM Macro Assembler    Page 2 Alphabetic symbol ordering
Relocatable symbols

      At line 735 in file lab12_ASM.s
      At line 766 in file lab12_ASM.s

7 symbols



ARM Macro Assembler    Page 1 Alphabetic symbol ordering
Absolute symbols

ADC0_BASE 4003B000

Symbol: ADC0_BASE
   Definitions
      At line 106 in file MKL46Z4.s
   Uses
      At line 134 in file MKL46Z4.s
      At line 135 in file MKL46Z4.s
      At line 136 in file MKL46Z4.s
      At line 137 in file MKL46Z4.s
      At line 138 in file MKL46Z4.s
      At line 139 in file MKL46Z4.s
      At line 140 in file MKL46Z4.s
      At line 141 in file MKL46Z4.s
      At line 142 in file MKL46Z4.s
      At line 143 in file MKL46Z4.s
      At line 144 in file MKL46Z4.s
      At line 145 in file MKL46Z4.s
      At line 146 in file MKL46Z4.s
      At line 147 in file MKL46Z4.s
      At line 148 in file MKL46Z4.s
      At line 149 in file MKL46Z4.s
      At line 150 in file MKL46Z4.s
      At line 151 in file MKL46Z4.s
      At line 152 in file MKL46Z4.s
      At line 153 in file MKL46Z4.s
      At line 154 in file MKL46Z4.s
      At line 155 in file MKL46Z4.s
      At line 156 in file MKL46Z4.s
      At line 157 in file MKL46Z4.s
      At line 158 in file MKL46Z4.s
      At line 159 in file MKL46Z4.s
      At line 160 in file MKL46Z4.s

ADC0_CFG1 4003B008

Symbol: ADC0_CFG1
   Definitions
      At line 134 in file MKL46Z4.s
   Uses
      None
Comment: ADC0_CFG1 unused
ADC0_CFG2 4003B00C

Symbol: ADC0_CFG2
   Definitions
      At line 135 in file MKL46Z4.s
   Uses
      None
Comment: ADC0_CFG2 unused
ADC0_CLM0 4003B06C

Symbol: ADC0_CLM0
   Definitions
      At line 138 in file MKL46Z4.s
   Uses
      None
Comment: ADC0_CLM0 unused
ADC0_CLM1 4003B068



ARM Macro Assembler    Page 2 Alphabetic symbol ordering
Absolute symbols


Symbol: ADC0_CLM1
   Definitions
      At line 139 in file MKL46Z4.s
   Uses
      None
Comment: ADC0_CLM1 unused
ADC0_CLM2 4003B064

Symbol: ADC0_CLM2
   Definitions
      At line 140 in file MKL46Z4.s
   Uses
      None
Comment: ADC0_CLM2 unused
ADC0_CLM3 4003B060

Symbol: ADC0_CLM3
   Definitions
      At line 141 in file MKL46Z4.s
   Uses
      None
Comment: ADC0_CLM3 unused
ADC0_CLM4 4003B05C

Symbol: ADC0_CLM4
   Definitions
      At line 142 in file MKL46Z4.s
   Uses
      None
Comment: ADC0_CLM4 unused
ADC0_CLMD 4003B054

Symbol: ADC0_CLMD
   Definitions
      At line 136 in file MKL46Z4.s
   Uses
      None
Comment: ADC0_CLMD unused
ADC0_CLMS 4003B058

Symbol: ADC0_CLMS
   Definitions
      At line 137 in file MKL46Z4.s
   Uses
      None
Comment: ADC0_CLMS unused
ADC0_CLP0 4003B04C

Symbol: ADC0_CLP0
   Definitions
      At line 145 in file MKL46Z4.s
   Uses
      None
Comment: ADC0_CLP0 unused
ADC0_CLP1 4003B048

Symbol: ADC0_CLP1
   Definitions



ARM Macro Assembler    Page 3 Alphabetic symbol ordering
Absolute symbols

      At line 146 in file MKL46Z4.s
   Uses
      None
Comment: ADC0_CLP1 unused
ADC0_CLP2 4003B044

Symbol: ADC0_CLP2
   Definitions
      At line 147 in file MKL46Z4.s
   Uses
      None
Comment: ADC0_CLP2 unused
ADC0_CLP3 4003B040

Symbol: ADC0_CLP3
   Definitions
      At line 148 in file MKL46Z4.s
   Uses
      None
Comment: ADC0_CLP3 unused
ADC0_CLP4 4003B03C

Symbol: ADC0_CLP4
   Definitions
      At line 149 in file MKL46Z4.s
   Uses
      None
Comment: ADC0_CLP4 unused
ADC0_CLPD 4003B034

Symbol: ADC0_CLPD
   Definitions
      At line 143 in file MKL46Z4.s
   Uses
      None
Comment: ADC0_CLPD unused
ADC0_CLPS 4003B038

Symbol: ADC0_CLPS
   Definitions
      At line 144 in file MKL46Z4.s
   Uses
      None
Comment: ADC0_CLPS unused
ADC0_CV1 4003B018

Symbol: ADC0_CV1
   Definitions
      At line 150 in file MKL46Z4.s
   Uses
      None
Comment: ADC0_CV1 unused
ADC0_CV2 4003B01C

Symbol: ADC0_CV2
   Definitions
      At line 151 in file MKL46Z4.s
   Uses
      None



ARM Macro Assembler    Page 4 Alphabetic symbol ordering
Absolute symbols

Comment: ADC0_CV2 unused
ADC0_IPR E000E40C

Symbol: ADC0_IPR
   Definitions
      At line 1004 in file MKL46Z4.s
   Uses
      None
Comment: ADC0_IPR unused
ADC0_IRQ 0000000F

Symbol: ADC0_IRQ
   Definitions
      At line 1074 in file MKL46Z4.s
   Uses
      At line 1108 in file MKL46Z4.s
Comment: ADC0_IRQ used once
ADC0_IRQ_MASK 00008000

Symbol: ADC0_IRQ_MASK
   Definitions
      At line 1108 in file MKL46Z4.s
   Uses
      None
Comment: ADC0_IRQ_MASK unused
ADC0_MG 4003B030

Symbol: ADC0_MG
   Definitions
      At line 152 in file MKL46Z4.s
   Uses
      None
Comment: ADC0_MG unused
ADC0_OFS 4003B028

Symbol: ADC0_OFS
   Definitions
      At line 153 in file MKL46Z4.s
   Uses
      None
Comment: ADC0_OFS unused
ADC0_PG 4003B02C

Symbol: ADC0_PG
   Definitions
      At line 154 in file MKL46Z4.s
   Uses
      None
Comment: ADC0_PG unused
ADC0_PRI_POS 0000001E

Symbol: ADC0_PRI_POS
   Definitions
      At line 1040 in file MKL46Z4.s
   Uses
      None
Comment: ADC0_PRI_POS unused
ADC0_RA 4003B010




ARM Macro Assembler    Page 5 Alphabetic symbol ordering
Absolute symbols

Symbol: ADC0_RA
   Definitions
      At line 155 in file MKL46Z4.s
   Uses
      None
Comment: ADC0_RA unused
ADC0_RB 4003B014

Symbol: ADC0_RB
   Definitions
      At line 156 in file MKL46Z4.s
   Uses
      None
Comment: ADC0_RB unused
ADC0_SC1A 4003B000

Symbol: ADC0_SC1A
   Definitions
      At line 157 in file MKL46Z4.s
   Uses
      None
Comment: ADC0_SC1A unused
ADC0_SC1B 4003B004

Symbol: ADC0_SC1B
   Definitions
      At line 158 in file MKL46Z4.s
   Uses
      None
Comment: ADC0_SC1B unused
ADC0_SC2 4003B020

Symbol: ADC0_SC2
   Definitions
      At line 159 in file MKL46Z4.s
   Uses
      None
Comment: ADC0_SC2 unused
ADC0_SC3 4003B024

Symbol: ADC0_SC3
   Definitions
      At line 160 in file MKL46Z4.s
   Uses
      None
Comment: ADC0_SC3 unused
ADC0_Vector 0000001F

Symbol: ADC0_Vector
   Definitions
      At line 1158 in file MKL46Z4.s
   Uses
      None
Comment: ADC0_Vector unused
ADC_ACFE_MASK 00000020

Symbol: ADC_ACFE_MASK
   Definitions
      At line 413 in file MKL46Z4.s



ARM Macro Assembler    Page 6 Alphabetic symbol ordering
Absolute symbols

   Uses
      None
Comment: ADC_ACFE_MASK unused
ADC_ACFE_SHIFT 00000005

Symbol: ADC_ACFE_SHIFT
   Definitions
      At line 414 in file MKL46Z4.s
   Uses
      None
Comment: ADC_ACFE_SHIFT unused
ADC_ACFGT_MASK 00000010

Symbol: ADC_ACFGT_MASK
   Definitions
      At line 415 in file MKL46Z4.s
   Uses
      None
Comment: ADC_ACFGT_MASK unused
ADC_ACFGT_SHIFT 00000004

Symbol: ADC_ACFGT_SHIFT
   Definitions
      At line 416 in file MKL46Z4.s
   Uses
      None
Comment: ADC_ACFGT_SHIFT unused
ADC_ACREN_MASK 00000008

Symbol: ADC_ACREN_MASK
   Definitions
      At line 417 in file MKL46Z4.s
   Uses
      None
Comment: ADC_ACREN_MASK unused
ADC_ACREN_SHIFT 00000003

Symbol: ADC_ACREN_SHIFT
   Definitions
      At line 418 in file MKL46Z4.s
   Uses
      None
Comment: ADC_ACREN_SHIFT unused
ADC_ADACT_MASK 00000080

Symbol: ADC_ADACT_MASK
   Definitions
      At line 409 in file MKL46Z4.s
   Uses
      None
Comment: ADC_ADACT_MASK unused
ADC_ADACT_SHIFT 00000007

Symbol: ADC_ADACT_SHIFT
   Definitions
      At line 410 in file MKL46Z4.s
   Uses
      None
Comment: ADC_ADACT_SHIFT unused



ARM Macro Assembler    Page 7 Alphabetic symbol ordering
Absolute symbols

ADC_ADCH_MASK 0000001F

Symbol: ADC_ADCH_MASK
   Definitions
      At line 386 in file MKL46Z4.s
   Uses
      None
Comment: ADC_ADCH_MASK unused
ADC_ADCH_SHIFT 00000000

Symbol: ADC_ADCH_SHIFT
   Definitions
      At line 387 in file MKL46Z4.s
   Uses
      None
Comment: ADC_ADCH_SHIFT unused
ADC_ADCO_MASK 00000008

Symbol: ADC_ADCO_MASK
   Definitions
      At line 440 in file MKL46Z4.s
   Uses
      None
Comment: ADC_ADCO_MASK unused
ADC_ADCO_SHIFT 00000003

Symbol: ADC_ADCO_SHIFT
   Definitions
      At line 441 in file MKL46Z4.s
   Uses
      None
Comment: ADC_ADCO_SHIFT unused
ADC_ADTRG_MASK 00000040

Symbol: ADC_ADTRG_MASK
   Definitions
      At line 411 in file MKL46Z4.s
   Uses
      None
Comment: ADC_ADTRG_MASK unused
ADC_ADTRG_SHIFT 00000006

Symbol: ADC_ADTRG_SHIFT
   Definitions
      At line 412 in file MKL46Z4.s
   Uses
      None
Comment: ADC_ADTRG_SHIFT unused
ADC_AIEN_MASK 00000040

Symbol: ADC_AIEN_MASK
   Definitions
      At line 382 in file MKL46Z4.s
   Uses
      None
Comment: ADC_AIEN_MASK unused
ADC_AIEN_SHIFT 00000006

Symbol: ADC_AIEN_SHIFT



ARM Macro Assembler    Page 8 Alphabetic symbol ordering
Absolute symbols

   Definitions
      At line 383 in file MKL46Z4.s
   Uses
      None
Comment: ADC_AIEN_SHIFT unused
ADC_AVGE_MASK 00000004

Symbol: ADC_AVGE_MASK
   Definitions
      At line 442 in file MKL46Z4.s
   Uses
      None
Comment: ADC_AVGE_MASK unused
ADC_AVGE_SHIFT 00000002

Symbol: ADC_AVGE_SHIFT
   Definitions
      At line 443 in file MKL46Z4.s
   Uses
      None
Comment: ADC_AVGE_SHIFT unused
ADC_AVGS_MASK 00000003

Symbol: ADC_AVGS_MASK
   Definitions
      At line 444 in file MKL46Z4.s
   Uses
      None
Comment: ADC_AVGS_MASK unused
ADC_AVGS_SHIFT 00000000

Symbol: ADC_AVGS_SHIFT
   Definitions
      At line 445 in file MKL46Z4.s
   Uses
      None
Comment: ADC_AVGS_SHIFT unused
ADC_CALF_MASK 00000040

Symbol: ADC_CALF_MASK
   Definitions
      At line 438 in file MKL46Z4.s
   Uses
      None
Comment: ADC_CALF_MASK unused
ADC_CALF_SHIFT 00000006

Symbol: ADC_CALF_SHIFT
   Definitions
      At line 439 in file MKL46Z4.s
   Uses
      None
Comment: ADC_CALF_SHIFT unused
ADC_CAL_MASK 00000080

Symbol: ADC_CAL_MASK
   Definitions
      At line 436 in file MKL46Z4.s
   Uses



ARM Macro Assembler    Page 9 Alphabetic symbol ordering
Absolute symbols

      None
Comment: ADC_CAL_MASK unused
ADC_CAL_SHIFT 00000007

Symbol: ADC_CAL_SHIFT
   Definitions
      At line 437 in file MKL46Z4.s
   Uses
      None
Comment: ADC_CAL_SHIFT unused
ADC_CFG1_ADICLK_MASK 00000003

Symbol: ADC_CFG1_ADICLK_MASK
   Definitions
      At line 192 in file MKL46Z4.s
   Uses
      None
Comment: ADC_CFG1_ADICLK_MASK unused
ADC_CFG1_ADICLK_SHIFT 00000000

Symbol: ADC_CFG1_ADICLK_SHIFT
   Definitions
      At line 193 in file MKL46Z4.s
   Uses
      None
Comment: ADC_CFG1_ADICLK_SHIFT unused
ADC_CFG1_ADIV_MASK 00000060

Symbol: ADC_CFG1_ADIV_MASK
   Definitions
      At line 186 in file MKL46Z4.s
   Uses
      None
Comment: ADC_CFG1_ADIV_MASK unused
ADC_CFG1_ADIV_SHIFT 00000005

Symbol: ADC_CFG1_ADIV_SHIFT
   Definitions
      At line 187 in file MKL46Z4.s
   Uses
      None
Comment: ADC_CFG1_ADIV_SHIFT unused
ADC_CFG1_ADLPC_MASK 00000080

Symbol: ADC_CFG1_ADLPC_MASK
   Definitions
      At line 184 in file MKL46Z4.s
   Uses
      None
Comment: ADC_CFG1_ADLPC_MASK unused
ADC_CFG1_ADLPC_SHIFT 00000007

Symbol: ADC_CFG1_ADLPC_SHIFT
   Definitions
      At line 185 in file MKL46Z4.s
   Uses
      None
Comment: ADC_CFG1_ADLPC_SHIFT unused
ADC_CFG1_ADLSMP_MASK 00000010



ARM Macro Assembler    Page 10 Alphabetic symbol ordering
Absolute symbols


Symbol: ADC_CFG1_ADLSMP_MASK
   Definitions
      At line 188 in file MKL46Z4.s
   Uses
      None
Comment: ADC_CFG1_ADLSMP_MASK unused
ADC_CFG1_ADLSMP_SHIFT 00000004

Symbol: ADC_CFG1_ADLSMP_SHIFT
   Definitions
      At line 189 in file MKL46Z4.s
   Uses
      None
Comment: ADC_CFG1_ADLSMP_SHIFT unused
ADC_CFG1_MODE_MASK 0000000C

Symbol: ADC_CFG1_MODE_MASK
   Definitions
      At line 190 in file MKL46Z4.s
   Uses
      None
Comment: ADC_CFG1_MODE_MASK unused
ADC_CFG1_MODE_SHIFT 00000002

Symbol: ADC_CFG1_MODE_SHIFT
   Definitions
      At line 191 in file MKL46Z4.s
   Uses
      None
Comment: ADC_CFG1_MODE_SHIFT unused
ADC_CFG1_OFFSET 00000008

Symbol: ADC_CFG1_OFFSET
   Definitions
      At line 109 in file MKL46Z4.s
   Uses
      At line 134 in file MKL46Z4.s
Comment: ADC_CFG1_OFFSET used once
ADC_CFG2_ADACKEN_MASK 00000008

Symbol: ADC_CFG2_ADACKEN_MASK
   Definitions
      At line 215 in file MKL46Z4.s
   Uses
      None
Comment: ADC_CFG2_ADACKEN_MASK unused
ADC_CFG2_ADACKEN_SHIFT 00000003

Symbol: ADC_CFG2_ADACKEN_SHIFT
   Definitions
      At line 216 in file MKL46Z4.s
   Uses
      None
Comment: ADC_CFG2_ADACKEN_SHIFT unused
ADC_CFG2_ADHSC_MASK 00000004

Symbol: ADC_CFG2_ADHSC_MASK
   Definitions



ARM Macro Assembler    Page 11 Alphabetic symbol ordering
Absolute symbols

      At line 217 in file MKL46Z4.s
   Uses
      None
Comment: ADC_CFG2_ADHSC_MASK unused
ADC_CFG2_ADHSC_SHIFT 00000002

Symbol: ADC_CFG2_ADHSC_SHIFT
   Definitions
      At line 218 in file MKL46Z4.s
   Uses
      None
Comment: ADC_CFG2_ADHSC_SHIFT unused
ADC_CFG2_ADLSTS_MASK 00000003

Symbol: ADC_CFG2_ADLSTS_MASK
   Definitions
      At line 219 in file MKL46Z4.s
   Uses
      None
Comment: ADC_CFG2_ADLSTS_MASK unused
ADC_CFG2_ADLSTS_SHIFT 00000000

Symbol: ADC_CFG2_ADLSTS_SHIFT
   Definitions
      At line 220 in file MKL46Z4.s
   Uses
      None
Comment: ADC_CFG2_ADLSTS_SHIFT unused
ADC_CFG2_MUXSEL_MASK 00000010

Symbol: ADC_CFG2_MUXSEL_MASK
   Definitions
      At line 213 in file MKL46Z4.s
   Uses
      None
Comment: ADC_CFG2_MUXSEL_MASK unused
ADC_CFG2_MUXSEL_SHIFT 00000004

Symbol: ADC_CFG2_MUXSEL_SHIFT
   Definitions
      At line 214 in file MKL46Z4.s
   Uses
      None
Comment: ADC_CFG2_MUXSEL_SHIFT unused
ADC_CFG2_OFFSET 0000000C

Symbol: ADC_CFG2_OFFSET
   Definitions
      At line 110 in file MKL46Z4.s
   Uses
      At line 135 in file MKL46Z4.s
Comment: ADC_CFG2_OFFSET used once
ADC_CLM0_MASK 0000003F

Symbol: ADC_CLM0_MASK
   Definitions
      At line 237 in file MKL46Z4.s
   Uses
      None



ARM Macro Assembler    Page 12 Alphabetic symbol ordering
Absolute symbols

Comment: ADC_CLM0_MASK unused
ADC_CLM0_OFFSET 0000006C

Symbol: ADC_CLM0_OFFSET
   Definitions
      At line 133 in file MKL46Z4.s
   Uses
      At line 138 in file MKL46Z4.s
Comment: ADC_CLM0_OFFSET used once
ADC_CLM0_SHIFT 00000000

Symbol: ADC_CLM0_SHIFT
   Definitions
      At line 238 in file MKL46Z4.s
   Uses
      None
Comment: ADC_CLM0_SHIFT unused
ADC_CLM1_MASK 0000007F

Symbol: ADC_CLM1_MASK
   Definitions
      At line 243 in file MKL46Z4.s
   Uses
      None
Comment: ADC_CLM1_MASK unused
ADC_CLM1_OFFSET 00000068

Symbol: ADC_CLM1_OFFSET
   Definitions
      At line 132 in file MKL46Z4.s
   Uses
      At line 139 in file MKL46Z4.s
Comment: ADC_CLM1_OFFSET used once
ADC_CLM1_SHIFT 00000000

Symbol: ADC_CLM1_SHIFT
   Definitions
      At line 244 in file MKL46Z4.s
   Uses
      None
Comment: ADC_CLM1_SHIFT unused
ADC_CLM2_MASK 000000FF

Symbol: ADC_CLM2_MASK
   Definitions
      At line 249 in file MKL46Z4.s
   Uses
      None
Comment: ADC_CLM2_MASK unused
ADC_CLM2_OFFSET 00000064

Symbol: ADC_CLM2_OFFSET
   Definitions
      At line 131 in file MKL46Z4.s
   Uses
      At line 140 in file MKL46Z4.s
Comment: ADC_CLM2_OFFSET used once
ADC_CLM2_SHIFT 00000000




ARM Macro Assembler    Page 13 Alphabetic symbol ordering
Absolute symbols

Symbol: ADC_CLM2_SHIFT
   Definitions
      At line 250 in file MKL46Z4.s
   Uses
      None
Comment: ADC_CLM2_SHIFT unused
ADC_CLM3_MASK 000001FF

Symbol: ADC_CLM3_MASK
   Definitions
      At line 255 in file MKL46Z4.s
   Uses
      None
Comment: ADC_CLM3_MASK unused
ADC_CLM3_OFFSET 00000060

Symbol: ADC_CLM3_OFFSET
   Definitions
      At line 130 in file MKL46Z4.s
   Uses
      At line 141 in file MKL46Z4.s
Comment: ADC_CLM3_OFFSET used once
ADC_CLM3_SHIFT 00000000

Symbol: ADC_CLM3_SHIFT
   Definitions
      At line 256 in file MKL46Z4.s
   Uses
      None
Comment: ADC_CLM3_SHIFT unused
ADC_CLM4_MASK 000003FF

Symbol: ADC_CLM4_MASK
   Definitions
      At line 261 in file MKL46Z4.s
   Uses
      None
Comment: ADC_CLM4_MASK unused
ADC_CLM4_OFFSET 0000005C

Symbol: ADC_CLM4_OFFSET
   Definitions
      At line 129 in file MKL46Z4.s
   Uses
      At line 142 in file MKL46Z4.s
Comment: ADC_CLM4_OFFSET used once
ADC_CLM4_SHIFT 00000000

Symbol: ADC_CLM4_SHIFT
   Definitions
      At line 262 in file MKL46Z4.s
   Uses
      None
Comment: ADC_CLM4_SHIFT unused
ADC_CLMD_MASK 0000003F

Symbol: ADC_CLMD_MASK
   Definitions
      At line 225 in file MKL46Z4.s



ARM Macro Assembler    Page 14 Alphabetic symbol ordering
Absolute symbols

   Uses
      None
Comment: ADC_CLMD_MASK unused
ADC_CLMD_OFFSET 00000054

Symbol: ADC_CLMD_OFFSET
   Definitions
      At line 127 in file MKL46Z4.s
   Uses
      At line 136 in file MKL46Z4.s
Comment: ADC_CLMD_OFFSET used once
ADC_CLMD_SHIFT 00000000

Symbol: ADC_CLMD_SHIFT
   Definitions
      At line 226 in file MKL46Z4.s
   Uses
      None
Comment: ADC_CLMD_SHIFT unused
ADC_CLMS_MASK 0000003F

Symbol: ADC_CLMS_MASK
   Definitions
      At line 231 in file MKL46Z4.s
   Uses
      None
Comment: ADC_CLMS_MASK unused
ADC_CLMS_OFFSET 00000058

Symbol: ADC_CLMS_OFFSET
   Definitions
      At line 128 in file MKL46Z4.s
   Uses
      At line 137 in file MKL46Z4.s
Comment: ADC_CLMS_OFFSET used once
ADC_CLMS_SHIFT 00000000

Symbol: ADC_CLMS_SHIFT
   Definitions
      At line 232 in file MKL46Z4.s
   Uses
      None
Comment: ADC_CLMS_SHIFT unused
ADC_CLP0_MASK 0000003F

Symbol: ADC_CLP0_MASK
   Definitions
      At line 279 in file MKL46Z4.s
   Uses
      None
Comment: ADC_CLP0_MASK unused
ADC_CLP0_OFFSET 0000004C

Symbol: ADC_CLP0_OFFSET
   Definitions
      At line 126 in file MKL46Z4.s
   Uses
      At line 145 in file MKL46Z4.s
Comment: ADC_CLP0_OFFSET used once



ARM Macro Assembler    Page 15 Alphabetic symbol ordering
Absolute symbols

ADC_CLP0_SHIFT 00000000

Symbol: ADC_CLP0_SHIFT
   Definitions
      At line 280 in file MKL46Z4.s
   Uses
      None
Comment: ADC_CLP0_SHIFT unused
ADC_CLP1_MASK 0000007F

Symbol: ADC_CLP1_MASK
   Definitions
      At line 285 in file MKL46Z4.s
   Uses
      None
Comment: ADC_CLP1_MASK unused
ADC_CLP1_OFFSET 00000048

Symbol: ADC_CLP1_OFFSET
   Definitions
      At line 125 in file MKL46Z4.s
   Uses
      At line 146 in file MKL46Z4.s
Comment: ADC_CLP1_OFFSET used once
ADC_CLP1_SHIFT 00000000

Symbol: ADC_CLP1_SHIFT
   Definitions
      At line 286 in file MKL46Z4.s
   Uses
      None
Comment: ADC_CLP1_SHIFT unused
ADC_CLP2_MASK 000000FF

Symbol: ADC_CLP2_MASK
   Definitions
      At line 291 in file MKL46Z4.s
   Uses
      None
Comment: ADC_CLP2_MASK unused
ADC_CLP2_OFFSET 00000044

Symbol: ADC_CLP2_OFFSET
   Definitions
      At line 124 in file MKL46Z4.s
   Uses
      At line 147 in file MKL46Z4.s
Comment: ADC_CLP2_OFFSET used once
ADC_CLP2_SHIFT 00000000

Symbol: ADC_CLP2_SHIFT
   Definitions
      At line 292 in file MKL46Z4.s
   Uses
      None
Comment: ADC_CLP2_SHIFT unused
ADC_CLP3_MASK 000001FF

Symbol: ADC_CLP3_MASK



ARM Macro Assembler    Page 16 Alphabetic symbol ordering
Absolute symbols

   Definitions
      At line 297 in file MKL46Z4.s
   Uses
      None
Comment: ADC_CLP3_MASK unused
ADC_CLP3_OFFSET 00000040

Symbol: ADC_CLP3_OFFSET
   Definitions
      At line 123 in file MKL46Z4.s
   Uses
      At line 148 in file MKL46Z4.s
Comment: ADC_CLP3_OFFSET used once
ADC_CLP3_SHIFT 00000000

Symbol: ADC_CLP3_SHIFT
   Definitions
      At line 298 in file MKL46Z4.s
   Uses
      None
Comment: ADC_CLP3_SHIFT unused
ADC_CLP4_MASK 000003FF

Symbol: ADC_CLP4_MASK
   Definitions
      At line 303 in file MKL46Z4.s
   Uses
      None
Comment: ADC_CLP4_MASK unused
ADC_CLP4_OFFSET 0000003C

Symbol: ADC_CLP4_OFFSET
   Definitions
      At line 122 in file MKL46Z4.s
   Uses
      At line 149 in file MKL46Z4.s
Comment: ADC_CLP4_OFFSET used once
ADC_CLP4_SHIFT 00000000

Symbol: ADC_CLP4_SHIFT
   Definitions
      At line 304 in file MKL46Z4.s
   Uses
      None
Comment: ADC_CLP4_SHIFT unused
ADC_CLPD_MASK 0000003F

Symbol: ADC_CLPD_MASK
   Definitions
      At line 267 in file MKL46Z4.s
   Uses
      None
Comment: ADC_CLPD_MASK unused
ADC_CLPD_OFFSET 00000034

Symbol: ADC_CLPD_OFFSET
   Definitions
      At line 120 in file MKL46Z4.s
   Uses



ARM Macro Assembler    Page 17 Alphabetic symbol ordering
Absolute symbols

      At line 143 in file MKL46Z4.s
Comment: ADC_CLPD_OFFSET used once
ADC_CLPD_SHIFT 00000000

Symbol: ADC_CLPD_SHIFT
   Definitions
      At line 268 in file MKL46Z4.s
   Uses
      None
Comment: ADC_CLPD_SHIFT unused
ADC_CLPS_MASK 0000003F

Symbol: ADC_CLPS_MASK
   Definitions
      At line 273 in file MKL46Z4.s
   Uses
      None
Comment: ADC_CLPS_MASK unused
ADC_CLPS_OFFSET 00000038

Symbol: ADC_CLPS_OFFSET
   Definitions
      At line 121 in file MKL46Z4.s
   Uses
      At line 144 in file MKL46Z4.s
Comment: ADC_CLPS_OFFSET used once
ADC_CLPS_SHIFT 00000000

Symbol: ADC_CLPS_SHIFT
   Definitions
      At line 274 in file MKL46Z4.s
   Uses
      None
Comment: ADC_CLPS_SHIFT unused
ADC_COCO_MASK 00000080

Symbol: ADC_COCO_MASK
   Definitions
      At line 380 in file MKL46Z4.s
   Uses
      None
Comment: ADC_COCO_MASK unused
ADC_COCO_SHIFT 00000007

Symbol: ADC_COCO_SHIFT
   Definitions
      At line 381 in file MKL46Z4.s
   Uses
      None
Comment: ADC_COCO_SHIFT unused
ADC_CV1_OFFSET 00000018

Symbol: ADC_CV1_OFFSET
   Definitions
      At line 113 in file MKL46Z4.s
   Uses
      At line 150 in file MKL46Z4.s
Comment: ADC_CV1_OFFSET used once
ADC_CV2_OFFSET 0000001C



ARM Macro Assembler    Page 18 Alphabetic symbol ordering
Absolute symbols


Symbol: ADC_CV2_OFFSET
   Definitions
      At line 114 in file MKL46Z4.s
   Uses
      At line 151 in file MKL46Z4.s
Comment: ADC_CV2_OFFSET used once
ADC_CV_MASK 0000FFFF

Symbol: ADC_CV_MASK
   Definitions
      At line 311 in file MKL46Z4.s
   Uses
      None
Comment: ADC_CV_MASK unused
ADC_CV_SHIFT 00000000

Symbol: ADC_CV_SHIFT
   Definitions
      At line 312 in file MKL46Z4.s
   Uses
      None
Comment: ADC_CV_SHIFT unused
ADC_DIFF_MASK 00000020

Symbol: ADC_DIFF_MASK
   Definitions
      At line 384 in file MKL46Z4.s
   Uses
      None
Comment: ADC_DIFF_MASK unused
ADC_DIFF_SHIFT 00000005

Symbol: ADC_DIFF_SHIFT
   Definitions
      At line 385 in file MKL46Z4.s
   Uses
      None
Comment: ADC_DIFF_SHIFT unused
ADC_DMAEN_MASK 00000004

Symbol: ADC_DMAEN_MASK
   Definitions
      At line 419 in file MKL46Z4.s
   Uses
      None
Comment: ADC_DMAEN_MASK unused
ADC_DMAEN_SHIFT 00000002

Symbol: ADC_DMAEN_SHIFT
   Definitions
      At line 420 in file MKL46Z4.s
   Uses
      None
Comment: ADC_DMAEN_SHIFT unused
ADC_D_MASK 0000FFFF

Symbol: ADC_D_MASK
   Definitions



ARM Macro Assembler    Page 19 Alphabetic symbol ordering
Absolute symbols

      At line 335 in file MKL46Z4.s
   Uses
      None
Comment: ADC_D_MASK unused
ADC_D_SHIFT 00000000

Symbol: ADC_D_SHIFT
   Definitions
      At line 336 in file MKL46Z4.s
   Uses
      None
Comment: ADC_D_SHIFT unused
ADC_MG_MASK 0000FFFF

Symbol: ADC_MG_MASK
   Definitions
      At line 317 in file MKL46Z4.s
   Uses
      None
Comment: ADC_MG_MASK unused
ADC_MG_OFFSET 00000030

Symbol: ADC_MG_OFFSET
   Definitions
      At line 119 in file MKL46Z4.s
   Uses
      At line 152 in file MKL46Z4.s
Comment: ADC_MG_OFFSET used once
ADC_MG_SHIFT 00000000

Symbol: ADC_MG_SHIFT
   Definitions
      At line 318 in file MKL46Z4.s
   Uses
      None
Comment: ADC_MG_SHIFT unused
ADC_OFS_MASK 0000FFFF

Symbol: ADC_OFS_MASK
   Definitions
      At line 323 in file MKL46Z4.s
   Uses
      None
Comment: ADC_OFS_MASK unused
ADC_OFS_OFFSET 00000028

Symbol: ADC_OFS_OFFSET
   Definitions
      At line 117 in file MKL46Z4.s
   Uses
      At line 153 in file MKL46Z4.s
Comment: ADC_OFS_OFFSET used once
ADC_OFS_SHIFT 00000000

Symbol: ADC_OFS_SHIFT
   Definitions
      At line 324 in file MKL46Z4.s
   Uses
      None



ARM Macro Assembler    Page 20 Alphabetic symbol ordering
Absolute symbols

Comment: ADC_OFS_SHIFT unused
ADC_PG_MASK 0000FFFF

Symbol: ADC_PG_MASK
   Definitions
      At line 329 in file MKL46Z4.s
   Uses
      None
Comment: ADC_PG_MASK unused
ADC_PG_OFFSET 0000002C

Symbol: ADC_PG_OFFSET
   Definitions
      At line 118 in file MKL46Z4.s
   Uses
      At line 154 in file MKL46Z4.s
Comment: ADC_PG_OFFSET used once
ADC_PG_SHIFT 00000000

Symbol: ADC_PG_SHIFT
   Definitions
      At line 330 in file MKL46Z4.s
   Uses
      None
Comment: ADC_PG_SHIFT unused
ADC_RA_OFFSET 00000010

Symbol: ADC_RA_OFFSET
   Definitions
      At line 111 in file MKL46Z4.s
   Uses
      At line 155 in file MKL46Z4.s
Comment: ADC_RA_OFFSET used once
ADC_RB_OFFSET 00000014

Symbol: ADC_RB_OFFSET
   Definitions
      At line 112 in file MKL46Z4.s
   Uses
      At line 156 in file MKL46Z4.s
Comment: ADC_RB_OFFSET used once
ADC_REFSEL_MASK 00000003

Symbol: ADC_REFSEL_MASK
   Definitions
      At line 421 in file MKL46Z4.s
   Uses
      None
Comment: ADC_REFSEL_MASK unused
ADC_REFSEL_SHIFT 00000000

Symbol: ADC_REFSEL_SHIFT
   Definitions
      At line 422 in file MKL46Z4.s
   Uses
      None
Comment: ADC_REFSEL_SHIFT unused
ADC_SC1A_OFFSET 00000000




ARM Macro Assembler    Page 21 Alphabetic symbol ordering
Absolute symbols

Symbol: ADC_SC1A_OFFSET
   Definitions
      At line 107 in file MKL46Z4.s
   Uses
      At line 157 in file MKL46Z4.s
Comment: ADC_SC1A_OFFSET used once
ADC_SC1B_OFFSET 00000004

Symbol: ADC_SC1B_OFFSET
   Definitions
      At line 108 in file MKL46Z4.s
   Uses
      At line 158 in file MKL46Z4.s
Comment: ADC_SC1B_OFFSET used once
ADC_SC2_OFFSET 00000020

Symbol: ADC_SC2_OFFSET
   Definitions
      At line 115 in file MKL46Z4.s
   Uses
      At line 159 in file MKL46Z4.s
Comment: ADC_SC2_OFFSET used once
ADC_SC3_OFFSET 00000024

Symbol: ADC_SC3_OFFSET
   Definitions
      At line 116 in file MKL46Z4.s
   Uses
      At line 160 in file MKL46Z4.s
Comment: ADC_SC3_OFFSET used once
ALPHA_CHAR 00000037

Symbol: ALPHA_CHAR
   Definitions
      At line 240 in file lab12_ASM.s
   Uses
      At line 380 in file lab12_ASM.s
Comment: ALPHA_CHAR used once
APSR_C_MASK 20000000

Symbol: APSR_C_MASK
   Definitions
      At line 57 in file MKL46Z4.s
   Uses
      At line 96 in file MKL46Z4.s
Comment: APSR_C_MASK used once
APSR_C_SHIFT 0000001D

Symbol: APSR_C_SHIFT
   Definitions
      At line 58 in file MKL46Z4.s
   Uses
      At line 97 in file MKL46Z4.s
Comment: APSR_C_SHIFT used once
APSR_MASK F0000000

Symbol: APSR_MASK
   Definitions
      At line 51 in file MKL46Z4.s



ARM Macro Assembler    Page 22 Alphabetic symbol ordering
Absolute symbols

   Uses
      None
Comment: APSR_MASK unused
APSR_N_MASK 80000000

Symbol: APSR_N_MASK
   Definitions
      At line 53 in file MKL46Z4.s
   Uses
      At line 92 in file MKL46Z4.s
Comment: APSR_N_MASK used once
APSR_N_SHIFT 0000001F

Symbol: APSR_N_SHIFT
   Definitions
      At line 54 in file MKL46Z4.s
   Uses
      At line 93 in file MKL46Z4.s
Comment: APSR_N_SHIFT used once
APSR_SHIFT 0000001C

Symbol: APSR_SHIFT
   Definitions
      At line 52 in file MKL46Z4.s
   Uses
      None
Comment: APSR_SHIFT unused
APSR_V_MASK 10000000

Symbol: APSR_V_MASK
   Definitions
      At line 59 in file MKL46Z4.s
   Uses
      At line 98 in file MKL46Z4.s
Comment: APSR_V_MASK used once
APSR_V_SHIFT 0000001C

Symbol: APSR_V_SHIFT
   Definitions
      At line 60 in file MKL46Z4.s
   Uses
      At line 99 in file MKL46Z4.s
Comment: APSR_V_SHIFT used once
APSR_Z_MASK 40000000

Symbol: APSR_Z_MASK
   Definitions
      At line 55 in file MKL46Z4.s
   Uses
      At line 94 in file MKL46Z4.s
Comment: APSR_Z_MASK used once
APSR_Z_SHIFT 0000001E

Symbol: APSR_Z_SHIFT
   Definitions
      At line 56 in file MKL46Z4.s
   Uses
      At line 95 in file MKL46Z4.s
Comment: APSR_Z_SHIFT used once



ARM Macro Assembler    Page 23 Alphabetic symbol ordering
Absolute symbols

BUF_PAST 0000000C

Symbol: BUF_PAST
   Definitions
      At line 232 in file lab12_ASM.s
   Uses
      At line 409 in file lab12_ASM.s
      At line 439 in file lab12_ASM.s
      At line 487 in file lab12_ASM.s

BUF_SIZE 00000010

Symbol: BUF_SIZE
   Definitions
      At line 233 in file lab12_ASM.s
   Uses
      At line 410 in file lab12_ASM.s
      At line 430 in file lab12_ASM.s

BUF_STRT 00000008

Symbol: BUF_STRT
   Definitions
      At line 231 in file lab12_ASM.s
   Uses
      At line 406 in file lab12_ASM.s
      At line 442 in file lab12_ASM.s
      At line 490 in file lab12_ASM.s

BYTE_BITS 00000008

Symbol: BYTE_BITS
   Definitions
      At line 26 in file MKL46Z4.s
   Uses
      None
Comment: BYTE_BITS unused
BYTE_MASK 000000FF

Symbol: BYTE_MASK
   Definitions
      At line 23 in file MKL46Z4.s
   Uses
      None
Comment: BYTE_MASK unused
CMP0_IPR E000E410

Symbol: CMP0_IPR
   Definitions
      At line 1005 in file MKL46Z4.s
   Uses
      None
Comment: CMP0_IPR unused
CMP0_IRQ 00000010

Symbol: CMP0_IRQ
   Definitions
      At line 1075 in file MKL46Z4.s
   Uses



ARM Macro Assembler    Page 24 Alphabetic symbol ordering
Absolute symbols

      At line 1109 in file MKL46Z4.s
Comment: CMP0_IRQ used once
CMP0_IRQ_MASK 00010000

Symbol: CMP0_IRQ_MASK
   Definitions
      At line 1109 in file MKL46Z4.s
   Uses
      None
Comment: CMP0_IRQ_MASK unused
CMP0_PRI_POS 00000006

Symbol: CMP0_PRI_POS
   Definitions
      At line 1041 in file MKL46Z4.s
   Uses
      None
Comment: CMP0_PRI_POS unused
CMP0_Vector 00000020

Symbol: CMP0_Vector
   Definitions
      At line 1159 in file MKL46Z4.s
   Uses
      None
Comment: CMP0_Vector unused
COP_COPCLKS_MASK 00000002

Symbol: COP_COPCLKS_MASK
   Definitions
      At line 1759 in file MKL46Z4.s
   Uses
      None
Comment: COP_COPCLKS_MASK unused
COP_COPCLKS_SHIFT 00000001

Symbol: COP_COPCLKS_SHIFT
   Definitions
      At line 1760 in file MKL46Z4.s
   Uses
      None
Comment: COP_COPCLKS_SHIFT unused
COP_COPT_MASK 0000000C

Symbol: COP_COPT_MASK
   Definitions
      At line 1757 in file MKL46Z4.s
   Uses
      None
Comment: COP_COPT_MASK unused
COP_COPT_SHIFT 00000002

Symbol: COP_COPT_SHIFT
   Definitions
      At line 1758 in file MKL46Z4.s
   Uses
      None
Comment: COP_COPT_SHIFT unused
COP_COPW_MASK 00000001



ARM Macro Assembler    Page 25 Alphabetic symbol ordering
Absolute symbols


Symbol: COP_COPW_MASK
   Definitions
      At line 1761 in file MKL46Z4.s
   Uses
      None
Comment: COP_COPW_MASK unused
COP_COPW_SHIFT 00000001

Symbol: COP_COPW_SHIFT
   Definitions
      At line 1762 in file MKL46Z4.s
   Uses
      None
Comment: COP_COPW_SHIFT unused
COP_DISABLE 00000000

Symbol: COP_DISABLE
   Definitions
      At line 1763 in file MKL46Z4.s
   Uses
      None
Comment: COP_DISABLE unused
DAC0_BASE 4003F000

Symbol: DAC0_BASE
   Definitions
      At line 448 in file MKL46Z4.s
   Uses
      At line 457 in file MKL46Z4.s
      At line 458 in file MKL46Z4.s
      At line 459 in file MKL46Z4.s
      At line 460 in file MKL46Z4.s
      At line 461 in file MKL46Z4.s
      At line 462 in file MKL46Z4.s
      At line 463 in file MKL46Z4.s
      At line 464 in file MKL46Z4.s

DAC0_C0 4003F021

Symbol: DAC0_C0
   Definitions
      At line 462 in file MKL46Z4.s
   Uses
      None
Comment: DAC0_C0 unused
DAC0_C0_OFFSET 00000021

Symbol: DAC0_C0_OFFSET
   Definitions
      At line 454 in file MKL46Z4.s
   Uses
      At line 462 in file MKL46Z4.s
Comment: DAC0_C0_OFFSET used once
DAC0_C1 4003F022

Symbol: DAC0_C1
   Definitions
      At line 463 in file MKL46Z4.s



ARM Macro Assembler    Page 26 Alphabetic symbol ordering
Absolute symbols

   Uses
      None
Comment: DAC0_C1 unused
DAC0_C1_OFFSET 00000022

Symbol: DAC0_C1_OFFSET
   Definitions
      At line 455 in file MKL46Z4.s
   Uses
      At line 463 in file MKL46Z4.s
Comment: DAC0_C1_OFFSET used once
DAC0_C2 4003F023

Symbol: DAC0_C2
   Definitions
      At line 464 in file MKL46Z4.s
   Uses
      None
Comment: DAC0_C2 unused
DAC0_C2_OFFSET 00000023

Symbol: DAC0_C2_OFFSET
   Definitions
      At line 456 in file MKL46Z4.s
   Uses
      At line 464 in file MKL46Z4.s
Comment: DAC0_C2_OFFSET used once
DAC0_DAT0H 4003F001

Symbol: DAC0_DAT0H
   Definitions
      At line 458 in file MKL46Z4.s
   Uses
      None
Comment: DAC0_DAT0H unused
DAC0_DAT0H_OFFSET 00000001

Symbol: DAC0_DAT0H_OFFSET
   Definitions
      At line 450 in file MKL46Z4.s
   Uses
      At line 458 in file MKL46Z4.s
Comment: DAC0_DAT0H_OFFSET used once
DAC0_DAT0L 4003F000

Symbol: DAC0_DAT0L
   Definitions
      At line 457 in file MKL46Z4.s
   Uses
      None
Comment: DAC0_DAT0L unused
DAC0_DAT0L_OFFSET 00000000

Symbol: DAC0_DAT0L_OFFSET
   Definitions
      At line 449 in file MKL46Z4.s
   Uses
      At line 457 in file MKL46Z4.s
Comment: DAC0_DAT0L_OFFSET used once



ARM Macro Assembler    Page 27 Alphabetic symbol ordering
Absolute symbols

DAC0_DAT1H 4003F003

Symbol: DAC0_DAT1H
   Definitions
      At line 460 in file MKL46Z4.s
   Uses
      None
Comment: DAC0_DAT1H unused
DAC0_DAT1H_OFFSET 00000003

Symbol: DAC0_DAT1H_OFFSET
   Definitions
      At line 452 in file MKL46Z4.s
   Uses
      At line 460 in file MKL46Z4.s
Comment: DAC0_DAT1H_OFFSET used once
DAC0_DAT1L 4003F002

Symbol: DAC0_DAT1L
   Definitions
      At line 459 in file MKL46Z4.s
   Uses
      None
Comment: DAC0_DAT1L unused
DAC0_DAT1L_OFFSET 00000002

Symbol: DAC0_DAT1L_OFFSET
   Definitions
      At line 451 in file MKL46Z4.s
   Uses
      At line 459 in file MKL46Z4.s
Comment: DAC0_DAT1L_OFFSET used once
DAC0_IPR E000E418

Symbol: DAC0_IPR
   Definitions
      At line 1014 in file MKL46Z4.s
   Uses
      None
Comment: DAC0_IPR unused
DAC0_IRQ 00000019

Symbol: DAC0_IRQ
   Definitions
      At line 1084 in file MKL46Z4.s
   Uses
      At line 1118 in file MKL46Z4.s
Comment: DAC0_IRQ used once
DAC0_IRQ_MASK 02000000

Symbol: DAC0_IRQ_MASK
   Definitions
      At line 1118 in file MKL46Z4.s
   Uses
      None
Comment: DAC0_IRQ_MASK unused
DAC0_PRI_POS 0000000E

Symbol: DAC0_PRI_POS



ARM Macro Assembler    Page 28 Alphabetic symbol ordering
Absolute symbols

   Definitions
      At line 1050 in file MKL46Z4.s
   Uses
      None
Comment: DAC0_PRI_POS unused
DAC0_SR 4003F020

Symbol: DAC0_SR
   Definitions
      At line 461 in file MKL46Z4.s
   Uses
      None
Comment: DAC0_SR unused
DAC0_SR_OFFSET 00000020

Symbol: DAC0_SR_OFFSET
   Definitions
      At line 453 in file MKL46Z4.s
   Uses
      At line 461 in file MKL46Z4.s
Comment: DAC0_SR_OFFSET used once
DAC0_Vector 00000029

Symbol: DAC0_Vector
   Definitions
      At line 1168 in file MKL46Z4.s
   Uses
      None
Comment: DAC0_Vector unused
DAC_C0_DACBBIEN_MASK 00000001

Symbol: DAC_C0_DACBBIEN_MASK
   Definitions
      At line 517 in file MKL46Z4.s
   Uses
      None
Comment: DAC_C0_DACBBIEN_MASK unused
DAC_C0_DACBBIEN_SHIFT 00000000

Symbol: DAC_C0_DACBBIEN_SHIFT
   Definitions
      At line 518 in file MKL46Z4.s
   Uses
      None
Comment: DAC_C0_DACBBIEN_SHIFT unused
DAC_C0_DACBTIEN_MASK 00000002

Symbol: DAC_C0_DACBTIEN_MASK
   Definitions
      At line 515 in file MKL46Z4.s
   Uses
      None
Comment: DAC_C0_DACBTIEN_MASK unused
DAC_C0_DACBTIEN_SHIFT 00000001

Symbol: DAC_C0_DACBTIEN_SHIFT
   Definitions
      At line 516 in file MKL46Z4.s
   Uses



ARM Macro Assembler    Page 29 Alphabetic symbol ordering
Absolute symbols

      None
Comment: DAC_C0_DACBTIEN_SHIFT unused
DAC_C0_DACEN_MASK 00000080

Symbol: DAC_C0_DACEN_MASK
   Definitions
      At line 505 in file MKL46Z4.s
   Uses
      None
Comment: DAC_C0_DACEN_MASK unused
DAC_C0_DACEN_SHIFT 00000007

Symbol: DAC_C0_DACEN_SHIFT
   Definitions
      At line 506 in file MKL46Z4.s
   Uses
      None
Comment: DAC_C0_DACEN_SHIFT unused
DAC_C0_DACRFS_MASK 00000040

Symbol: DAC_C0_DACRFS_MASK
   Definitions
      At line 507 in file MKL46Z4.s
   Uses
      None
Comment: DAC_C0_DACRFS_MASK unused
DAC_C0_DACRFS_SHIFT 00000006

Symbol: DAC_C0_DACRFS_SHIFT
   Definitions
      At line 508 in file MKL46Z4.s
   Uses
      None
Comment: DAC_C0_DACRFS_SHIFT unused
DAC_C0_DACSWTRG_MASK 00000010

Symbol: DAC_C0_DACSWTRG_MASK
   Definitions
      At line 511 in file MKL46Z4.s
   Uses
      None
Comment: DAC_C0_DACSWTRG_MASK unused
DAC_C0_DACSWTRG_SHIFT 00000004

Symbol: DAC_C0_DACSWTRG_SHIFT
   Definitions
      At line 512 in file MKL46Z4.s
   Uses
      None
Comment: DAC_C0_DACSWTRG_SHIFT unused
DAC_C0_DACTRGSEL_MASK 00000020

Symbol: DAC_C0_DACTRGSEL_MASK
   Definitions
      At line 509 in file MKL46Z4.s
   Uses
      None
Comment: DAC_C0_DACTRGSEL_MASK unused
DAC_C0_DACTRGSEL_SHIFT 00000005



ARM Macro Assembler    Page 30 Alphabetic symbol ordering
Absolute symbols


Symbol: DAC_C0_DACTRGSEL_SHIFT
   Definitions
      At line 510 in file MKL46Z4.s
   Uses
      None
Comment: DAC_C0_DACTRGSEL_SHIFT unused
DAC_C0_LPEN_MASK 00000008

Symbol: DAC_C0_LPEN_MASK
   Definitions
      At line 513 in file MKL46Z4.s
   Uses
      None
Comment: DAC_C0_LPEN_MASK unused
DAC_C0_LPEN_SHIFT 00000003

Symbol: DAC_C0_LPEN_SHIFT
   Definitions
      At line 514 in file MKL46Z4.s
   Uses
      None
Comment: DAC_C0_LPEN_SHIFT unused
DAC_C1_DACBFEN_MASK 00000001

Symbol: DAC_C1_DACBFEN_MASK
   Definitions
      At line 534 in file MKL46Z4.s
   Uses
      None
Comment: DAC_C1_DACBFEN_MASK unused
DAC_C1_DACBFEN_SHIFT 00000000

Symbol: DAC_C1_DACBFEN_SHIFT
   Definitions
      At line 535 in file MKL46Z4.s
   Uses
      None
Comment: DAC_C1_DACBFEN_SHIFT unused
DAC_C1_DACBFMD_MASK 00000004

Symbol: DAC_C1_DACBFMD_MASK
   Definitions
      At line 532 in file MKL46Z4.s
   Uses
      None
Comment: DAC_C1_DACBFMD_MASK unused
DAC_C1_DACBFMD_SHIFT 00000002

Symbol: DAC_C1_DACBFMD_SHIFT
   Definitions
      At line 533 in file MKL46Z4.s
   Uses
      None
Comment: DAC_C1_DACBFMD_SHIFT unused
DAC_C1_DMAEN_MASK 00000080

Symbol: DAC_C1_DMAEN_MASK
   Definitions



ARM Macro Assembler    Page 31 Alphabetic symbol ordering
Absolute symbols

      At line 530 in file MKL46Z4.s
   Uses
      None
Comment: DAC_C1_DMAEN_MASK unused
DAC_C1_DMAEN_SHIFT 00000007

Symbol: DAC_C1_DMAEN_SHIFT
   Definitions
      At line 531 in file MKL46Z4.s
   Uses
      None
Comment: DAC_C1_DMAEN_SHIFT unused
DAC_C2_DACBFRP_MASK 00000010

Symbol: DAC_C2_DACBFRP_MASK
   Definitions
      At line 542 in file MKL46Z4.s
   Uses
      None
Comment: DAC_C2_DACBFRP_MASK unused
DAC_C2_DACBFRP_SHIFT 00000004

Symbol: DAC_C2_DACBFRP_SHIFT
   Definitions
      At line 543 in file MKL46Z4.s
   Uses
      None
Comment: DAC_C2_DACBFRP_SHIFT unused
DAC_C2_DACBFUP_MASK 00000001

Symbol: DAC_C2_DACBFUP_MASK
   Definitions
      At line 544 in file MKL46Z4.s
   Uses
      None
Comment: DAC_C2_DACBFUP_MASK unused
DAC_C2_DACBFUP_SHIFT 00000000

Symbol: DAC_C2_DACBFUP_SHIFT
   Definitions
      At line 545 in file MKL46Z4.s
   Uses
      None
Comment: DAC_C2_DACBFUP_SHIFT unused
DAC_DAT0H_MASK 0000000F

Symbol: DAC_DAT0H_MASK
   Definitions
      At line 470 in file MKL46Z4.s
   Uses
      None
Comment: DAC_DAT0H_MASK unused
DAC_DAT0H_SHIFT 00000000

Symbol: DAC_DAT0H_SHIFT
   Definitions
      At line 471 in file MKL46Z4.s
   Uses
      None



ARM Macro Assembler    Page 32 Alphabetic symbol ordering
Absolute symbols

Comment: DAC_DAT0H_SHIFT unused
DAC_DAT1H_MASK 0000000F

Symbol: DAC_DAT1H_MASK
   Definitions
      At line 481 in file MKL46Z4.s
   Uses
      None
Comment: DAC_DAT1H_MASK unused
DAC_DAT1H_SHIFT 00000000

Symbol: DAC_DAT1H_SHIFT
   Definitions
      At line 482 in file MKL46Z4.s
   Uses
      None
Comment: DAC_DAT1H_SHIFT unused
DAC_SR_DACBFRPBF_MASK 00000001

Symbol: DAC_SR_DACBFRPBF_MASK
   Definitions
      At line 556 in file MKL46Z4.s
   Uses
      None
Comment: DAC_SR_DACBFRPBF_MASK unused
DAC_SR_DACBFRPBF_SHIFT 00000000

Symbol: DAC_SR_DACBFRPBF_SHIFT
   Definitions
      At line 557 in file MKL46Z4.s
   Uses
      None
Comment: DAC_SR_DACBFRPBF_SHIFT unused
DAC_SR_DACBFRPTF_MASK 00000002

Symbol: DAC_SR_DACBFRPTF_MASK
   Definitions
      At line 554 in file MKL46Z4.s
   Uses
      None
Comment: DAC_SR_DACBFRPTF_MASK unused
DAC_SR_DACBFRPTF_SHIFT 00000001

Symbol: DAC_SR_DACBFRPTF_SHIFT
   Definitions
      At line 555 in file MKL46Z4.s
   Uses
      None
Comment: DAC_SR_DACBFRPTF_SHIFT unused
DMA0_IPR E000E400

Symbol: DMA0_IPR
   Definitions
      At line 989 in file MKL46Z4.s
   Uses
      None
Comment: DMA0_IPR unused
DMA0_IRQ 00000000




ARM Macro Assembler    Page 33 Alphabetic symbol ordering
Absolute symbols

Symbol: DMA0_IRQ
   Definitions
      At line 1059 in file MKL46Z4.s
   Uses
      At line 1093 in file MKL46Z4.s
Comment: DMA0_IRQ used once
DMA0_IRQ_MASK 00000001

Symbol: DMA0_IRQ_MASK
   Definitions
      At line 1093 in file MKL46Z4.s
   Uses
      None
Comment: DMA0_IRQ_MASK unused
DMA0_PRI_POS 00000006

Symbol: DMA0_PRI_POS
   Definitions
      At line 1025 in file MKL46Z4.s
   Uses
      None
Comment: DMA0_PRI_POS unused
DMA0_Vector 00000010

Symbol: DMA0_Vector
   Definitions
      At line 1143 in file MKL46Z4.s
   Uses
      None
Comment: DMA0_Vector unused
DMA1_IPR E000E400

Symbol: DMA1_IPR
   Definitions
      At line 990 in file MKL46Z4.s
   Uses
      None
Comment: DMA1_IPR unused
DMA1_IRQ 00000001

Symbol: DMA1_IRQ
   Definitions
      At line 1060 in file MKL46Z4.s
   Uses
      At line 1094 in file MKL46Z4.s
Comment: DMA1_IRQ used once
DMA1_IRQ_MASK 00000002

Symbol: DMA1_IRQ_MASK
   Definitions
      At line 1094 in file MKL46Z4.s
   Uses
      None
Comment: DMA1_IRQ_MASK unused
DMA1_PRI_POS 0000000E

Symbol: DMA1_PRI_POS
   Definitions
      At line 1026 in file MKL46Z4.s



ARM Macro Assembler    Page 34 Alphabetic symbol ordering
Absolute symbols

   Uses
      None
Comment: DMA1_PRI_POS unused
DMA1_Vector 00000011

Symbol: DMA1_Vector
   Definitions
      At line 1144 in file MKL46Z4.s
   Uses
      None
Comment: DMA1_Vector unused
DMA2_IPR E000E400

Symbol: DMA2_IPR
   Definitions
      At line 991 in file MKL46Z4.s
   Uses
      None
Comment: DMA2_IPR unused
DMA2_IRQ 00000002

Symbol: DMA2_IRQ
   Definitions
      At line 1061 in file MKL46Z4.s
   Uses
      At line 1095 in file MKL46Z4.s
Comment: DMA2_IRQ used once
DMA2_IRQ_MASK 00000004

Symbol: DMA2_IRQ_MASK
   Definitions
      At line 1095 in file MKL46Z4.s
   Uses
      None
Comment: DMA2_IRQ_MASK unused
DMA2_PRI_POS 00000016

Symbol: DMA2_PRI_POS
   Definitions
      At line 1027 in file MKL46Z4.s
   Uses
      None
Comment: DMA2_PRI_POS unused
DMA2_Vector 00000012

Symbol: DMA2_Vector
   Definitions
      At line 1145 in file MKL46Z4.s
   Uses
      None
Comment: DMA2_Vector unused
DMA3_IPR E000E400

Symbol: DMA3_IPR
   Definitions
      At line 992 in file MKL46Z4.s
   Uses
      None
Comment: DMA3_IPR unused



ARM Macro Assembler    Page 35 Alphabetic symbol ordering
Absolute symbols

DMA3_IRQ 00000003

Symbol: DMA3_IRQ
   Definitions
      At line 1062 in file MKL46Z4.s
   Uses
      At line 1096 in file MKL46Z4.s
Comment: DMA3_IRQ used once
DMA3_IRQ_MASK 00000008

Symbol: DMA3_IRQ_MASK
   Definitions
      At line 1096 in file MKL46Z4.s
   Uses
      None
Comment: DMA3_IRQ_MASK unused
DMA3_PRI_POS 0000001E

Symbol: DMA3_PRI_POS
   Definitions
      At line 1028 in file MKL46Z4.s
   Uses
      None
Comment: DMA3_PRI_POS unused
DMA3_Vector 00000013

Symbol: DMA3_Vector
   Definitions
      At line 1146 in file MKL46Z4.s
   Uses
      None
Comment: DMA3_Vector unused
EPSR_MASK 01000000

Symbol: EPSR_MASK
   Definitions
      At line 66 in file MKL46Z4.s
   Uses
      None
Comment: EPSR_MASK unused
EPSR_SHIFT 00000018

Symbol: EPSR_SHIFT
   Definitions
      At line 67 in file MKL46Z4.s
   Uses
      None
Comment: EPSR_SHIFT unused
EPSR_T_MASK 01000000

Symbol: EPSR_T_MASK
   Definitions
      At line 68 in file MKL46Z4.s
   Uses
      At line 100 in file MKL46Z4.s
Comment: EPSR_T_MASK used once
EPSR_T_SHIFT 00000018

Symbol: EPSR_T_SHIFT



ARM Macro Assembler    Page 36 Alphabetic symbol ordering
Absolute symbols

   Definitions
      At line 69 in file MKL46Z4.s
   Uses
      At line 101 in file MKL46Z4.s
Comment: EPSR_T_SHIFT used once
FCF_BACKDOOR_KEY0 000000FF

Symbol: FCF_BACKDOOR_KEY0
   Definitions
      At line 620 in file MKL46Z4.s
   Uses
      None
Comment: FCF_BACKDOOR_KEY0 unused
FCF_BACKDOOR_KEY1 000000FF

Symbol: FCF_BACKDOOR_KEY1
   Definitions
      At line 624 in file MKL46Z4.s
   Uses
      None
Comment: FCF_BACKDOOR_KEY1 unused
FCF_BACKDOOR_KEY2 000000FF

Symbol: FCF_BACKDOOR_KEY2
   Definitions
      At line 628 in file MKL46Z4.s
   Uses
      None
Comment: FCF_BACKDOOR_KEY2 unused
FCF_BACKDOOR_KEY3 000000FF

Symbol: FCF_BACKDOOR_KEY3
   Definitions
      At line 632 in file MKL46Z4.s
   Uses
      None
Comment: FCF_BACKDOOR_KEY3 unused
FCF_BACKDOOR_KEY4 000000FF

Symbol: FCF_BACKDOOR_KEY4
   Definitions
      At line 636 in file MKL46Z4.s
   Uses
      None
Comment: FCF_BACKDOOR_KEY4 unused
FCF_BACKDOOR_KEY5 000000FF

Symbol: FCF_BACKDOOR_KEY5
   Definitions
      At line 640 in file MKL46Z4.s
   Uses
      None
Comment: FCF_BACKDOOR_KEY5 unused
FCF_BACKDOOR_KEY6 000000FF

Symbol: FCF_BACKDOOR_KEY6
   Definitions
      At line 644 in file MKL46Z4.s
   Uses



ARM Macro Assembler    Page 37 Alphabetic symbol ordering
Absolute symbols

      None
Comment: FCF_BACKDOOR_KEY6 unused
FCF_BACKDOOR_KEY7 000000FF

Symbol: FCF_BACKDOOR_KEY7
   Definitions
      At line 648 in file MKL46Z4.s
   Uses
      None
Comment: FCF_BACKDOOR_KEY7 unused
FCF_FOPT 000000FF

Symbol: FCF_FOPT
   Definitions
      At line 659 in file MKL46Z4.s
   Uses
      None
Comment: FCF_FOPT unused
FCF_FPROT0 000000FF

Symbol: FCF_FPROT0
   Definitions
      At line 674 in file MKL46Z4.s
   Uses
      None
Comment: FCF_FPROT0 unused
FCF_FPROT1 000000FF

Symbol: FCF_FPROT1
   Definitions
      At line 685 in file MKL46Z4.s
   Uses
      None
Comment: FCF_FPROT1 unused
FCF_FPROT2 000000FF

Symbol: FCF_FPROT2
   Definitions
      At line 696 in file MKL46Z4.s
   Uses
      None
Comment: FCF_FPROT2 unused
FCF_FPROT3 000000FF

Symbol: FCF_FPROT3
   Definitions
      At line 707 in file MKL46Z4.s
   Uses
      None
Comment: FCF_FPROT3 unused
FCF_FSEC 0000007E

Symbol: FCF_FSEC
   Definitions
      At line 736 in file MKL46Z4.s
   Uses
      None
Comment: FCF_FSEC unused
FGPIOA_BASE F80FF000



ARM Macro Assembler    Page 38 Alphabetic symbol ordering
Absolute symbols


Symbol: FGPIOA_BASE
   Definitions
      At line 568 in file MKL46Z4.s
   Uses
      At line 569 in file MKL46Z4.s
      At line 570 in file MKL46Z4.s
      At line 571 in file MKL46Z4.s
      At line 572 in file MKL46Z4.s
      At line 573 in file MKL46Z4.s
      At line 574 in file MKL46Z4.s

FGPIOA_PCOR F80FF008

Symbol: FGPIOA_PCOR
   Definitions
      At line 571 in file MKL46Z4.s
   Uses
      None
Comment: FGPIOA_PCOR unused
FGPIOA_PDDR F80FF014

Symbol: FGPIOA_PDDR
   Definitions
      At line 574 in file MKL46Z4.s
   Uses
      None
Comment: FGPIOA_PDDR unused
FGPIOA_PDIR F80FF010

Symbol: FGPIOA_PDIR
   Definitions
      At line 573 in file MKL46Z4.s
   Uses
      None
Comment: FGPIOA_PDIR unused
FGPIOA_PDOR F80FF000

Symbol: FGPIOA_PDOR
   Definitions
      At line 569 in file MKL46Z4.s
   Uses
      None
Comment: FGPIOA_PDOR unused
FGPIOA_PSOR F80FF004

Symbol: FGPIOA_PSOR
   Definitions
      At line 570 in file MKL46Z4.s
   Uses
      None
Comment: FGPIOA_PSOR unused
FGPIOA_PTOR F80FF00C

Symbol: FGPIOA_PTOR
   Definitions
      At line 572 in file MKL46Z4.s
   Uses
      None



ARM Macro Assembler    Page 39 Alphabetic symbol ordering
Absolute symbols

Comment: FGPIOA_PTOR unused
FGPIOB_BASE F80FF040

Symbol: FGPIOB_BASE
   Definitions
      At line 576 in file MKL46Z4.s
   Uses
      At line 577 in file MKL46Z4.s
      At line 578 in file MKL46Z4.s
      At line 579 in file MKL46Z4.s
      At line 580 in file MKL46Z4.s
      At line 581 in file MKL46Z4.s
      At line 582 in file MKL46Z4.s

FGPIOB_PCOR F80FF048

Symbol: FGPIOB_PCOR
   Definitions
      At line 579 in file MKL46Z4.s
   Uses
      None
Comment: FGPIOB_PCOR unused
FGPIOB_PDDR F80FF054

Symbol: FGPIOB_PDDR
   Definitions
      At line 582 in file MKL46Z4.s
   Uses
      None
Comment: FGPIOB_PDDR unused
FGPIOB_PDIR F80FF050

Symbol: FGPIOB_PDIR
   Definitions
      At line 581 in file MKL46Z4.s
   Uses
      None
Comment: FGPIOB_PDIR unused
FGPIOB_PDOR F80FF040

Symbol: FGPIOB_PDOR
   Definitions
      At line 577 in file MKL46Z4.s
   Uses
      None
Comment: FGPIOB_PDOR unused
FGPIOB_PSOR F80FF044

Symbol: FGPIOB_PSOR
   Definitions
      At line 578 in file MKL46Z4.s
   Uses
      None
Comment: FGPIOB_PSOR unused
FGPIOB_PTOR F80FF04C

Symbol: FGPIOB_PTOR
   Definitions
      At line 580 in file MKL46Z4.s



ARM Macro Assembler    Page 40 Alphabetic symbol ordering
Absolute symbols

   Uses
      None
Comment: FGPIOB_PTOR unused
FGPIOC_BASE F80FF080

Symbol: FGPIOC_BASE
   Definitions
      At line 584 in file MKL46Z4.s
   Uses
      At line 585 in file MKL46Z4.s
      At line 586 in file MKL46Z4.s
      At line 587 in file MKL46Z4.s
      At line 588 in file MKL46Z4.s
      At line 589 in file MKL46Z4.s
      At line 590 in file MKL46Z4.s

FGPIOC_PCOR F80FF088

Symbol: FGPIOC_PCOR
   Definitions
      At line 587 in file MKL46Z4.s
   Uses
      None
Comment: FGPIOC_PCOR unused
FGPIOC_PDDR F80FF094

Symbol: FGPIOC_PDDR
   Definitions
      At line 590 in file MKL46Z4.s
   Uses
      None
Comment: FGPIOC_PDDR unused
FGPIOC_PDIR F80FF090

Symbol: FGPIOC_PDIR
   Definitions
      At line 589 in file MKL46Z4.s
   Uses
      None
Comment: FGPIOC_PDIR unused
FGPIOC_PDOR F80FF080

Symbol: FGPIOC_PDOR
   Definitions
      At line 585 in file MKL46Z4.s
   Uses
      None
Comment: FGPIOC_PDOR unused
FGPIOC_PSOR F80FF084

Symbol: FGPIOC_PSOR
   Definitions
      At line 586 in file MKL46Z4.s
   Uses
      None
Comment: FGPIOC_PSOR unused
FGPIOC_PTOR F80FF08C

Symbol: FGPIOC_PTOR



ARM Macro Assembler    Page 41 Alphabetic symbol ordering
Absolute symbols

   Definitions
      At line 588 in file MKL46Z4.s
   Uses
      None
Comment: FGPIOC_PTOR unused
FGPIOD_BASE F80FF0C0

Symbol: FGPIOD_BASE
   Definitions
      At line 592 in file MKL46Z4.s
   Uses
      At line 593 in file MKL46Z4.s
      At line 594 in file MKL46Z4.s
      At line 595 in file MKL46Z4.s
      At line 596 in file MKL46Z4.s
      At line 597 in file MKL46Z4.s
      At line 598 in file MKL46Z4.s
      At line 555 in file lab12_ASM.s
      At line 579 in file lab12_ASM.s
      At line 609 in file lab12_ASM.s

FGPIOD_PCOR F80FF0C8

Symbol: FGPIOD_PCOR
   Definitions
      At line 595 in file MKL46Z4.s
   Uses
      None
Comment: FGPIOD_PCOR unused
FGPIOD_PDDR F80FF0D4

Symbol: FGPIOD_PDDR
   Definitions
      At line 598 in file MKL46Z4.s
   Uses
      None
Comment: FGPIOD_PDDR unused
FGPIOD_PDIR F80FF0D0

Symbol: FGPIOD_PDIR
   Definitions
      At line 597 in file MKL46Z4.s
   Uses
      None
Comment: FGPIOD_PDIR unused
FGPIOD_PDOR F80FF0C0

Symbol: FGPIOD_PDOR
   Definitions
      At line 593 in file MKL46Z4.s
   Uses
      None
Comment: FGPIOD_PDOR unused
FGPIOD_PSOR F80FF0C4

Symbol: FGPIOD_PSOR
   Definitions
      At line 594 in file MKL46Z4.s
   Uses



ARM Macro Assembler    Page 42 Alphabetic symbol ordering
Absolute symbols

      None
Comment: FGPIOD_PSOR unused
FGPIOD_PTOR F80FF0CC

Symbol: FGPIOD_PTOR
   Definitions
      At line 596 in file MKL46Z4.s
   Uses
      None
Comment: FGPIOD_PTOR unused
FGPIOE_BASE F80FF100

Symbol: FGPIOE_BASE
   Definitions
      At line 600 in file MKL46Z4.s
   Uses
      At line 601 in file MKL46Z4.s
      At line 602 in file MKL46Z4.s
      At line 603 in file MKL46Z4.s
      At line 604 in file MKL46Z4.s
      At line 605 in file MKL46Z4.s
      At line 606 in file MKL46Z4.s
      At line 549 in file lab12_ASM.s
      At line 573 in file lab12_ASM.s
      At line 612 in file lab12_ASM.s

FGPIOE_PCOR F80FF108

Symbol: FGPIOE_PCOR
   Definitions
      At line 603 in file MKL46Z4.s
   Uses
      None
Comment: FGPIOE_PCOR unused
FGPIOE_PDDR F80FF114

Symbol: FGPIOE_PDDR
   Definitions
      At line 606 in file MKL46Z4.s
   Uses
      None
Comment: FGPIOE_PDDR unused
FGPIOE_PDIR F80FF110

Symbol: FGPIOE_PDIR
   Definitions
      At line 605 in file MKL46Z4.s
   Uses
      None
Comment: FGPIOE_PDIR unused
FGPIOE_PDOR F80FF100

Symbol: FGPIOE_PDOR
   Definitions
      At line 601 in file MKL46Z4.s
   Uses
      None
Comment: FGPIOE_PDOR unused
FGPIOE_PSOR F80FF104



ARM Macro Assembler    Page 43 Alphabetic symbol ordering
Absolute symbols


Symbol: FGPIOE_PSOR
   Definitions
      At line 602 in file MKL46Z4.s
   Uses
      None
Comment: FGPIOE_PSOR unused
FGPIOE_PTOR F80FF10C

Symbol: FGPIOE_PTOR
   Definitions
      At line 604 in file MKL46Z4.s
   Uses
      None
Comment: FGPIOE_PTOR unused
FGPIO_BASE F80FF000

Symbol: FGPIO_BASE
   Definitions
      At line 563 in file MKL46Z4.s
   Uses
      None
Comment: FGPIO_BASE unused
FTFA_IPR E000E404

Symbol: FTFA_IPR
   Definitions
      At line 994 in file MKL46Z4.s
   Uses
      None
Comment: FTFA_IPR unused
FTFA_IRQ 00000005

Symbol: FTFA_IRQ
   Definitions
      At line 1064 in file MKL46Z4.s
   Uses
      At line 1098 in file MKL46Z4.s
Comment: FTFA_IRQ used once
FTFA_IRQ_MASK 00000020

Symbol: FTFA_IRQ_MASK
   Definitions
      At line 1098 in file MKL46Z4.s
   Uses
      None
Comment: FTFA_IRQ_MASK unused
FTFA_PRI_POS 0000000E

Symbol: FTFA_PRI_POS
   Definitions
      At line 1030 in file MKL46Z4.s
   Uses
      None
Comment: FTFA_PRI_POS unused
FTFA_Vector 00000015

Symbol: FTFA_Vector
   Definitions



ARM Macro Assembler    Page 44 Alphabetic symbol ordering
Absolute symbols

      At line 1148 in file MKL46Z4.s
   Uses
      None
Comment: FTFA_Vector unused
GPIOA_BASE 400FF000

Symbol: GPIOA_BASE
   Definitions
      At line 755 in file MKL46Z4.s
   Uses
      At line 756 in file MKL46Z4.s
      At line 757 in file MKL46Z4.s
      At line 758 in file MKL46Z4.s
      At line 759 in file MKL46Z4.s
      At line 760 in file MKL46Z4.s
      At line 761 in file MKL46Z4.s

GPIOA_OFFSET 00000000

Symbol: GPIOA_OFFSET
   Definitions
      At line 749 in file MKL46Z4.s
   Uses
      None
Comment: GPIOA_OFFSET unused
GPIOA_PCOR 400FF008

Symbol: GPIOA_PCOR
   Definitions
      At line 758 in file MKL46Z4.s
   Uses
      None
Comment: GPIOA_PCOR unused
GPIOA_PDDR 400FF014

Symbol: GPIOA_PDDR
   Definitions
      At line 761 in file MKL46Z4.s
   Uses
      None
Comment: GPIOA_PDDR unused
GPIOA_PDIR 400FF010

Symbol: GPIOA_PDIR
   Definitions
      At line 760 in file MKL46Z4.s
   Uses
      None
Comment: GPIOA_PDIR unused
GPIOA_PDOR 400FF000

Symbol: GPIOA_PDOR
   Definitions
      At line 756 in file MKL46Z4.s
   Uses
      None
Comment: GPIOA_PDOR unused
GPIOA_PSOR 400FF004




ARM Macro Assembler    Page 45 Alphabetic symbol ordering
Absolute symbols

Symbol: GPIOA_PSOR
   Definitions
      At line 757 in file MKL46Z4.s
   Uses
      None
Comment: GPIOA_PSOR unused
GPIOA_PTOR 400FF00C

Symbol: GPIOA_PTOR
   Definitions
      At line 759 in file MKL46Z4.s
   Uses
      None
Comment: GPIOA_PTOR unused
GPIOB_BASE 400FF040

Symbol: GPIOB_BASE
   Definitions
      At line 763 in file MKL46Z4.s
   Uses
      At line 764 in file MKL46Z4.s
      At line 765 in file MKL46Z4.s
      At line 766 in file MKL46Z4.s
      At line 767 in file MKL46Z4.s
      At line 768 in file MKL46Z4.s
      At line 769 in file MKL46Z4.s

GPIOB_OFFSET 00000040

Symbol: GPIOB_OFFSET
   Definitions
      At line 750 in file MKL46Z4.s
   Uses
      None
Comment: GPIOB_OFFSET unused
GPIOB_PCOR 400FF048

Symbol: GPIOB_PCOR
   Definitions
      At line 766 in file MKL46Z4.s
   Uses
      None
Comment: GPIOB_PCOR unused
GPIOB_PDDR 400FF054

Symbol: GPIOB_PDDR
   Definitions
      At line 769 in file MKL46Z4.s
   Uses
      None
Comment: GPIOB_PDDR unused
GPIOB_PDIR 400FF050

Symbol: GPIOB_PDIR
   Definitions
      At line 768 in file MKL46Z4.s
   Uses
      None
Comment: GPIOB_PDIR unused



ARM Macro Assembler    Page 46 Alphabetic symbol ordering
Absolute symbols

GPIOB_PDOR 400FF040

Symbol: GPIOB_PDOR
   Definitions
      At line 764 in file MKL46Z4.s
   Uses
      None
Comment: GPIOB_PDOR unused
GPIOB_PSOR 400FF044

Symbol: GPIOB_PSOR
   Definitions
      At line 765 in file MKL46Z4.s
   Uses
      None
Comment: GPIOB_PSOR unused
GPIOB_PTOR 400FF04C

Symbol: GPIOB_PTOR
   Definitions
      At line 767 in file MKL46Z4.s
   Uses
      None
Comment: GPIOB_PTOR unused
GPIOC_BASE 400FF080

Symbol: GPIOC_BASE
   Definitions
      At line 771 in file MKL46Z4.s
   Uses
      At line 772 in file MKL46Z4.s
      At line 773 in file MKL46Z4.s
      At line 774 in file MKL46Z4.s
      At line 775 in file MKL46Z4.s
      At line 776 in file MKL46Z4.s
      At line 777 in file MKL46Z4.s

GPIOC_OFFSET 00000080

Symbol: GPIOC_OFFSET
   Definitions
      At line 751 in file MKL46Z4.s
   Uses
      None
Comment: GPIOC_OFFSET unused
GPIOC_PCOR 400FF088

Symbol: GPIOC_PCOR
   Definitions
      At line 774 in file MKL46Z4.s
   Uses
      None
Comment: GPIOC_PCOR unused
GPIOC_PDDR 400FF094

Symbol: GPIOC_PDDR
   Definitions
      At line 777 in file MKL46Z4.s
   Uses



ARM Macro Assembler    Page 47 Alphabetic symbol ordering
Absolute symbols

      None
Comment: GPIOC_PDDR unused
GPIOC_PDIR 400FF090

Symbol: GPIOC_PDIR
   Definitions
      At line 776 in file MKL46Z4.s
   Uses
      None
Comment: GPIOC_PDIR unused
GPIOC_PDOR 400FF080

Symbol: GPIOC_PDOR
   Definitions
      At line 772 in file MKL46Z4.s
   Uses
      None
Comment: GPIOC_PDOR unused
GPIOC_PSOR 400FF084

Symbol: GPIOC_PSOR
   Definitions
      At line 773 in file MKL46Z4.s
   Uses
      None
Comment: GPIOC_PSOR unused
GPIOC_PTOR 400FF08C

Symbol: GPIOC_PTOR
   Definitions
      At line 775 in file MKL46Z4.s
   Uses
      None
Comment: GPIOC_PTOR unused
GPIOD_BASE 400FF0C0

Symbol: GPIOD_BASE
   Definitions
      At line 779 in file MKL46Z4.s
   Uses
      At line 780 in file MKL46Z4.s
      At line 781 in file MKL46Z4.s
      At line 782 in file MKL46Z4.s
      At line 783 in file MKL46Z4.s
      At line 784 in file MKL46Z4.s
      At line 785 in file MKL46Z4.s

GPIOD_OFFSET 000000C0

Symbol: GPIOD_OFFSET
   Definitions
      At line 752 in file MKL46Z4.s
   Uses
      None
Comment: GPIOD_OFFSET unused
GPIOD_PCOR 400FF0C8

Symbol: GPIOD_PCOR
   Definitions



ARM Macro Assembler    Page 48 Alphabetic symbol ordering
Absolute symbols

      At line 782 in file MKL46Z4.s
   Uses
      None
Comment: GPIOD_PCOR unused
GPIOD_PDDR 400FF0D4

Symbol: GPIOD_PDDR
   Definitions
      At line 785 in file MKL46Z4.s
   Uses
      None
Comment: GPIOD_PDDR unused
GPIOD_PDIR 400FF0D0

Symbol: GPIOD_PDIR
   Definitions
      At line 784 in file MKL46Z4.s
   Uses
      None
Comment: GPIOD_PDIR unused
GPIOD_PDOR 400FF0C0

Symbol: GPIOD_PDOR
   Definitions
      At line 780 in file MKL46Z4.s
   Uses
      None
Comment: GPIOD_PDOR unused
GPIOD_PSOR 400FF0C4

Symbol: GPIOD_PSOR
   Definitions
      At line 781 in file MKL46Z4.s
   Uses
      None
Comment: GPIOD_PSOR unused
GPIOD_PTOR 400FF0CC

Symbol: GPIOD_PTOR
   Definitions
      At line 783 in file MKL46Z4.s
   Uses
      None
Comment: GPIOD_PTOR unused
GPIOE_BASE 400FF100

Symbol: GPIOE_BASE
   Definitions
      At line 787 in file MKL46Z4.s
   Uses
      At line 788 in file MKL46Z4.s
      At line 789 in file MKL46Z4.s
      At line 790 in file MKL46Z4.s
      At line 791 in file MKL46Z4.s
      At line 792 in file MKL46Z4.s
      At line 793 in file MKL46Z4.s

GPIOE_OFFSET 00000100




ARM Macro Assembler    Page 49 Alphabetic symbol ordering
Absolute symbols

Symbol: GPIOE_OFFSET
   Definitions
      At line 753 in file MKL46Z4.s
   Uses
      None
Comment: GPIOE_OFFSET unused
GPIOE_PCOR 400FF108

Symbol: GPIOE_PCOR
   Definitions
      At line 790 in file MKL46Z4.s
   Uses
      None
Comment: GPIOE_PCOR unused
GPIOE_PDDR 400FF114

Symbol: GPIOE_PDDR
   Definitions
      At line 793 in file MKL46Z4.s
   Uses
      None
Comment: GPIOE_PDDR unused
GPIOE_PDIR 400FF110

Symbol: GPIOE_PDIR
   Definitions
      At line 792 in file MKL46Z4.s
   Uses
      None
Comment: GPIOE_PDIR unused
GPIOE_PDOR 400FF100

Symbol: GPIOE_PDOR
   Definitions
      At line 788 in file MKL46Z4.s
   Uses
      None
Comment: GPIOE_PDOR unused
GPIOE_PSOR 400FF104

Symbol: GPIOE_PSOR
   Definitions
      At line 789 in file MKL46Z4.s
   Uses
      None
Comment: GPIOE_PSOR unused
GPIOE_PTOR 400FF10C

Symbol: GPIOE_PTOR
   Definitions
      At line 791 in file MKL46Z4.s
   Uses
      None
Comment: GPIOE_PTOR unused
GPIO_BASE 400FF000

Symbol: GPIO_BASE
   Definitions
      At line 742 in file MKL46Z4.s



ARM Macro Assembler    Page 50 Alphabetic symbol ordering
Absolute symbols

   Uses
      None
Comment: GPIO_BASE unused
GPIO_PCOR_OFFSET 00000008

Symbol: GPIO_PCOR_OFFSET
   Definitions
      At line 745 in file MKL46Z4.s
   Uses
      At line 571 in file MKL46Z4.s
      At line 579 in file MKL46Z4.s
      At line 587 in file MKL46Z4.s
      At line 595 in file MKL46Z4.s
      At line 603 in file MKL46Z4.s
      At line 758 in file MKL46Z4.s
      At line 766 in file MKL46Z4.s
      At line 774 in file MKL46Z4.s
      At line 782 in file MKL46Z4.s
      At line 790 in file MKL46Z4.s
      At line 551 in file lab12_ASM.s
      At line 557 in file lab12_ASM.s

GPIO_PDDR_OFFSET 00000014

Symbol: GPIO_PDDR_OFFSET
   Definitions
      At line 748 in file MKL46Z4.s
   Uses
      At line 574 in file MKL46Z4.s
      At line 582 in file MKL46Z4.s
      At line 590 in file MKL46Z4.s
      At line 598 in file MKL46Z4.s
      At line 606 in file MKL46Z4.s
      At line 761 in file MKL46Z4.s
      At line 769 in file MKL46Z4.s
      At line 777 in file MKL46Z4.s
      At line 785 in file MKL46Z4.s
      At line 793 in file MKL46Z4.s
      At line 611 in file lab12_ASM.s
      At line 614 in file lab12_ASM.s

GPIO_PDIR_OFFSET 00000010

Symbol: GPIO_PDIR_OFFSET
   Definitions
      At line 747 in file MKL46Z4.s
   Uses
      At line 573 in file MKL46Z4.s
      At line 581 in file MKL46Z4.s
      At line 589 in file MKL46Z4.s
      At line 597 in file MKL46Z4.s
      At line 605 in file MKL46Z4.s
      At line 760 in file MKL46Z4.s
      At line 768 in file MKL46Z4.s
      At line 776 in file MKL46Z4.s
      At line 784 in file MKL46Z4.s
      At line 792 in file MKL46Z4.s

GPIO_PDOR_OFFSET 00000000



ARM Macro Assembler    Page 51 Alphabetic symbol ordering
Absolute symbols


Symbol: GPIO_PDOR_OFFSET
   Definitions
      At line 743 in file MKL46Z4.s
   Uses
      At line 569 in file MKL46Z4.s
      At line 577 in file MKL46Z4.s
      At line 585 in file MKL46Z4.s
      At line 593 in file MKL46Z4.s
      At line 601 in file MKL46Z4.s
      At line 756 in file MKL46Z4.s
      At line 764 in file MKL46Z4.s
      At line 772 in file MKL46Z4.s
      At line 780 in file MKL46Z4.s
      At line 788 in file MKL46Z4.s

GPIO_PSOR_OFFSET 00000004

Symbol: GPIO_PSOR_OFFSET
   Definitions
      At line 744 in file MKL46Z4.s
   Uses
      At line 570 in file MKL46Z4.s
      At line 578 in file MKL46Z4.s
      At line 586 in file MKL46Z4.s
      At line 594 in file MKL46Z4.s
      At line 602 in file MKL46Z4.s
      At line 757 in file MKL46Z4.s
      At line 765 in file MKL46Z4.s
      At line 773 in file MKL46Z4.s
      At line 781 in file MKL46Z4.s
      At line 789 in file MKL46Z4.s
      At line 575 in file lab12_ASM.s
      At line 581 in file lab12_ASM.s

GPIO_PTOR_OFFSET 0000000C

Symbol: GPIO_PTOR_OFFSET
   Definitions
      At line 746 in file MKL46Z4.s
   Uses
      At line 572 in file MKL46Z4.s
      At line 580 in file MKL46Z4.s
      At line 588 in file MKL46Z4.s
      At line 596 in file MKL46Z4.s
      At line 604 in file MKL46Z4.s
      At line 759 in file MKL46Z4.s
      At line 767 in file MKL46Z4.s
      At line 775 in file MKL46Z4.s
      At line 783 in file MKL46Z4.s
      At line 791 in file MKL46Z4.s

HALFWORD_MASK 0000FFFF

Symbol: HALFWORD_MASK
   Definitions
      At line 32 in file MKL46Z4.s
   Uses
      None



ARM Macro Assembler    Page 52 Alphabetic symbol ordering
Absolute symbols

Comment: HALFWORD_MASK unused
HALFWORD_SIZE 00000002

Symbol: HALFWORD_SIZE
   Definitions
      At line 30 in file MKL46Z4.s
   Uses
      None
Comment: HALFWORD_SIZE unused
Hard_Fault_Vector 00000003

Symbol: Hard_Fault_Vector
   Definitions
      At line 1130 in file MKL46Z4.s
   Uses
      None
Comment: Hard_Fault_Vector unused
I2C0_IPR E000E408

Symbol: I2C0_IPR
   Definitions
      At line 997 in file MKL46Z4.s
   Uses
      None
Comment: I2C0_IPR unused
I2C0_IRQ 00000008

Symbol: I2C0_IRQ
   Definitions
      At line 1067 in file MKL46Z4.s
   Uses
      At line 1101 in file MKL46Z4.s
Comment: I2C0_IRQ used once
I2C0_IRQ_MASK 00000100

Symbol: I2C0_IRQ_MASK
   Definitions
      At line 1101 in file MKL46Z4.s
   Uses
      None
Comment: I2C0_IRQ_MASK unused
I2C0_PRI_POS 00000006

Symbol: I2C0_PRI_POS
   Definitions
      At line 1033 in file MKL46Z4.s
   Uses
      None
Comment: I2C0_PRI_POS unused
I2C0_Vector 00000018

Symbol: I2C0_Vector
   Definitions
      At line 1151 in file MKL46Z4.s
   Uses
      None
Comment: I2C0_Vector unused
I2C1_IPR E000E408




ARM Macro Assembler    Page 53 Alphabetic symbol ordering
Absolute symbols

Symbol: I2C1_IPR
   Definitions
      At line 998 in file MKL46Z4.s
   Uses
      None
Comment: I2C1_IPR unused
I2C1_IRQ 00000009

Symbol: I2C1_IRQ
   Definitions
      At line 1068 in file MKL46Z4.s
   Uses
      At line 1102 in file MKL46Z4.s
Comment: I2C1_IRQ used once
I2C1_IRQ_MASK 00000200

Symbol: I2C1_IRQ_MASK
   Definitions
      At line 1102 in file MKL46Z4.s
   Uses
      None
Comment: I2C1_IRQ_MASK unused
I2C1_PRI_POS 0000000E

Symbol: I2C1_PRI_POS
   Definitions
      At line 1034 in file MKL46Z4.s
   Uses
      None
Comment: I2C1_PRI_POS unused
I2C1_Vector 00000019

Symbol: I2C1_Vector
   Definitions
      At line 1152 in file MKL46Z4.s
   Uses
      None
Comment: I2C1_Vector unused
I2S0_IPR E000E414

Symbol: I2S0_IPR
   Definitions
      At line 1012 in file MKL46Z4.s
   Uses
      None
Comment: I2S0_IPR unused
I2S0_IRQ 00000017

Symbol: I2S0_IRQ
   Definitions
      At line 1082 in file MKL46Z4.s
   Uses
      At line 1116 in file MKL46Z4.s
Comment: I2S0_IRQ used once
I2S0_IRQ_MASK 00800000

Symbol: I2S0_IRQ_MASK
   Definitions
      At line 1116 in file MKL46Z4.s



ARM Macro Assembler    Page 54 Alphabetic symbol ordering
Absolute symbols

   Uses
      None
Comment: I2S0_IRQ_MASK unused
I2S0_PRI_POS 0000001E

Symbol: I2S0_PRI_POS
   Definitions
      At line 1048 in file MKL46Z4.s
   Uses
      None
Comment: I2S0_PRI_POS unused
I2S0_Vector 00000027

Symbol: I2S0_Vector
   Definitions
      At line 1166 in file MKL46Z4.s
   Uses
      None
Comment: I2S0_Vector unused
IN_PTR 00000000

Symbol: IN_PTR
   Definitions
      At line 229 in file lab12_ASM.s
   Uses
      At line 404 in file lab12_ASM.s
      At line 434 in file lab12_ASM.s
      At line 444 in file lab12_ASM.s

IPSR_EXCEPTION_MASK 0000003F

Symbol: IPSR_EXCEPTION_MASK
   Definitions
      At line 89 in file MKL46Z4.s
   Uses
      At line 102 in file MKL46Z4.s
Comment: IPSR_EXCEPTION_MASK used once
IPSR_EXCEPTION_SHIFT 00000000

Symbol: IPSR_EXCEPTION_SHIFT
   Definitions
      At line 90 in file MKL46Z4.s
   Uses
      At line 103 in file MKL46Z4.s
Comment: IPSR_EXCEPTION_SHIFT used once
IPSR_MASK 0000003F

Symbol: IPSR_MASK
   Definitions
      At line 87 in file MKL46Z4.s
   Uses
      None
Comment: IPSR_MASK unused
IPSR_SHIFT 00000000

Symbol: IPSR_SHIFT
   Definitions
      At line 88 in file MKL46Z4.s
   Uses



ARM Macro Assembler    Page 55 Alphabetic symbol ordering
Absolute symbols

      None
Comment: IPSR_SHIFT unused
Init_SP_Vector 00000000

Symbol: Init_SP_Vector
   Definitions
      At line 1127 in file MKL46Z4.s
   Uses
      None
Comment: Init_SP_Vector unused
LCD_IPR E000E41C

Symbol: LCD_IPR
   Definitions
      At line 1018 in file MKL46Z4.s
   Uses
      None
Comment: LCD_IPR unused
LCD_IRQ 0000001D

Symbol: LCD_IRQ
   Definitions
      At line 1088 in file MKL46Z4.s
   Uses
      At line 1122 in file MKL46Z4.s
Comment: LCD_IRQ used once
LCD_IRQ_MASK 20000000

Symbol: LCD_IRQ_MASK
   Definitions
      At line 1122 in file MKL46Z4.s
   Uses
      None
Comment: LCD_IRQ_MASK unused
LCD_PRI_POS 0000000E

Symbol: LCD_PRI_POS
   Definitions
      At line 1054 in file MKL46Z4.s
   Uses
      None
Comment: LCD_PRI_POS unused
LCD_Vector 0000002D

Symbol: LCD_Vector
   Definitions
      At line 1172 in file MKL46Z4.s
   Uses
      None
Comment: LCD_Vector unused
LED_GREEN_MASK 00000020

Symbol: LED_GREEN_MASK
   Definitions
      At line 248 in file lab12_ASM.s
   Uses
      At line 249 in file lab12_ASM.s
      At line 556 in file lab12_ASM.s
      At line 580 in file lab12_ASM.s



ARM Macro Assembler    Page 56 Alphabetic symbol ordering
Absolute symbols


LED_PORTD_MASK 00000020

Symbol: LED_PORTD_MASK
   Definitions
      At line 249 in file lab12_ASM.s
   Uses
      At line 610 in file lab12_ASM.s
Comment: LED_PORTD_MASK used once
LED_PORTE_MASK 20000000

Symbol: LED_PORTE_MASK
   Definitions
      At line 255 in file lab12_ASM.s
   Uses
      At line 613 in file lab12_ASM.s
Comment: LED_PORTE_MASK used once
LED_RED_MASK 20000000

Symbol: LED_RED_MASK
   Definitions
      At line 254 in file lab12_ASM.s
   Uses
      At line 255 in file lab12_ASM.s
      At line 550 in file lab12_ASM.s
      At line 574 in file lab12_ASM.s

LLWU_IPR E000E404

Symbol: LLWU_IPR
   Definitions
      At line 996 in file MKL46Z4.s
   Uses
      None
Comment: LLWU_IPR unused
LLWU_IRQ 00000007

Symbol: LLWU_IRQ
   Definitions
      At line 1066 in file MKL46Z4.s
   Uses
      At line 1100 in file MKL46Z4.s
Comment: LLWU_IRQ used once
LLWU_IRQ_MASK 00000080

Symbol: LLWU_IRQ_MASK
   Definitions
      At line 1100 in file MKL46Z4.s
   Uses
      None
Comment: LLWU_IRQ_MASK unused
LLWU_PRI_POS 0000001E

Symbol: LLWU_PRI_POS
   Definitions
      At line 1032 in file MKL46Z4.s
   Uses
      None
Comment: LLWU_PRI_POS unused



ARM Macro Assembler    Page 57 Alphabetic symbol ordering
Absolute symbols

LLWU_Vector 00000017

Symbol: LLWU_Vector
   Definitions
      At line 1150 in file MKL46Z4.s
   Uses
      None
Comment: LLWU_Vector unused
LPTMR0_IPR E000E41C

Symbol: LPTMR0_IPR
   Definitions
      At line 1017 in file MKL46Z4.s
   Uses
      None
Comment: LPTMR0_IPR unused
LPTMR0_IRQ 0000001C

Symbol: LPTMR0_IRQ
   Definitions
      At line 1087 in file MKL46Z4.s
   Uses
      At line 1121 in file MKL46Z4.s
Comment: LPTMR0_IRQ used once
LPTMR0_IRQ_MASK 10000000

Symbol: LPTMR0_IRQ_MASK
   Definitions
      At line 1121 in file MKL46Z4.s
   Uses
      None
Comment: LPTMR0_IRQ_MASK unused
LPTMR0_PRI_POS 00000006

Symbol: LPTMR0_PRI_POS
   Definitions
      At line 1053 in file MKL46Z4.s
   Uses
      None
Comment: LPTMR0_PRI_POS unused
LPTMR0_Vector 0000002C

Symbol: LPTMR0_Vector
   Definitions
      At line 1171 in file MKL46Z4.s
   Uses
      None
Comment: LPTMR0_Vector unused
MAX_STRING 0000004F

Symbol: MAX_STRING
   Definitions
      At line 227 in file lab12_ASM.s
   Uses
      None
Comment: MAX_STRING unused
MCG_BASE 40064000

Symbol: MCG_BASE



ARM Macro Assembler    Page 58 Alphabetic symbol ordering
Absolute symbols

   Definitions
      At line 799 in file MKL46Z4.s
   Uses
      At line 806 in file MKL46Z4.s
      At line 807 in file MKL46Z4.s
      At line 808 in file MKL46Z4.s
      At line 809 in file MKL46Z4.s
      At line 810 in file MKL46Z4.s
      At line 811 in file MKL46Z4.s

MCG_C1 40064000

Symbol: MCG_C1
   Definitions
      At line 806 in file MKL46Z4.s
   Uses
      None
Comment: MCG_C1 unused
MCG_C1_CLKS_EXT_MASK 00000080

Symbol: MCG_C1_CLKS_EXT_MASK
   Definitions
      At line 845 in file MKL46Z4.s
   Uses
      At line 850 in file MKL46Z4.s
Comment: MCG_C1_CLKS_EXT_MASK used once
MCG_C1_CLKS_INT_MASK 00000040

Symbol: MCG_C1_CLKS_INT_MASK
   Definitions
      At line 846 in file MKL46Z4.s
   Uses
      None
Comment: MCG_C1_CLKS_INT_MASK unused
MCG_C1_CLKS_MASK 000000C0

Symbol: MCG_C1_CLKS_MASK
   Definitions
      At line 835 in file MKL46Z4.s
   Uses
      None
Comment: MCG_C1_CLKS_MASK unused
MCG_C1_CLKS_PLL_MASK 00000000

Symbol: MCG_C1_CLKS_PLL_MASK
   Definitions
      At line 847 in file MKL46Z4.s
   Uses
      None
Comment: MCG_C1_CLKS_PLL_MASK unused
MCG_C1_CLKS_SHIFT 00000006

Symbol: MCG_C1_CLKS_SHIFT
   Definitions
      At line 836 in file MKL46Z4.s
   Uses
      None
Comment: MCG_C1_CLKS_SHIFT unused
MCG_C1_EXT_DIV256 00000098



ARM Macro Assembler    Page 59 Alphabetic symbol ordering
Absolute symbols


Symbol: MCG_C1_EXT_DIV256
   Definitions
      At line 850 in file MKL46Z4.s
   Uses
      None
Comment: MCG_C1_EXT_DIV256 unused
MCG_C1_FRDIV_256_MASK 00000018

Symbol: MCG_C1_FRDIV_256_MASK
   Definitions
      At line 848 in file MKL46Z4.s
   Uses
      At line 850 in file MKL46Z4.s
Comment: MCG_C1_FRDIV_256_MASK used once
MCG_C1_FRDIV_MASK 00000038

Symbol: MCG_C1_FRDIV_MASK
   Definitions
      At line 837 in file MKL46Z4.s
   Uses
      None
Comment: MCG_C1_FRDIV_MASK unused
MCG_C1_FRDIV_SHIFT 00000003

Symbol: MCG_C1_FRDIV_SHIFT
   Definitions
      At line 838 in file MKL46Z4.s
   Uses
      None
Comment: MCG_C1_FRDIV_SHIFT unused
MCG_C1_IRCLKEN_MASK 00000002

Symbol: MCG_C1_IRCLKEN_MASK
   Definitions
      At line 841 in file MKL46Z4.s
   Uses
      None
Comment: MCG_C1_IRCLKEN_MASK unused
MCG_C1_IRCLKEN_SHIFT 00000001

Symbol: MCG_C1_IRCLKEN_SHIFT
   Definitions
      At line 842 in file MKL46Z4.s
   Uses
      None
Comment: MCG_C1_IRCLKEN_SHIFT unused
MCG_C1_IREFSTEN_MASK 00000001

Symbol: MCG_C1_IREFSTEN_MASK
   Definitions
      At line 843 in file MKL46Z4.s
   Uses
      None
Comment: MCG_C1_IREFSTEN_MASK unused
MCG_C1_IREFSTEN_SHIFT 00000000

Symbol: MCG_C1_IREFSTEN_SHIFT
   Definitions



ARM Macro Assembler    Page 60 Alphabetic symbol ordering
Absolute symbols

      At line 844 in file MKL46Z4.s
   Uses
      None
Comment: MCG_C1_IREFSTEN_SHIFT unused
MCG_C1_IREFS_MASK 00000004

Symbol: MCG_C1_IREFS_MASK
   Definitions
      At line 839 in file MKL46Z4.s
   Uses
      None
Comment: MCG_C1_IREFS_MASK unused
MCG_C1_IREFS_SHIFT 00000002

Symbol: MCG_C1_IREFS_SHIFT
   Definitions
      At line 840 in file MKL46Z4.s
   Uses
      None
Comment: MCG_C1_IREFS_SHIFT unused
MCG_C1_OFFSET 00000000

Symbol: MCG_C1_OFFSET
   Definitions
      At line 800 in file MKL46Z4.s
   Uses
      At line 806 in file MKL46Z4.s
Comment: MCG_C1_OFFSET used once
MCG_C2 40064001

Symbol: MCG_C2
   Definitions
      At line 807 in file MKL46Z4.s
   Uses
      None
Comment: MCG_C2 unused
MCG_C2_EREFS0_MASK 00000004

Symbol: MCG_C2_EREFS0_MASK
   Definitions
      At line 879 in file MKL46Z4.s
   Uses
      At line 887 in file MKL46Z4.s
Comment: MCG_C2_EREFS0_MASK used once
MCG_C2_EREFS0_SHIFT 00000002

Symbol: MCG_C2_EREFS0_SHIFT
   Definitions
      At line 880 in file MKL46Z4.s
   Uses
      None
Comment: MCG_C2_EREFS0_SHIFT unused
MCG_C2_HF_LP_OSC 00000014

Symbol: MCG_C2_HF_LP_OSC
   Definitions
      At line 887 in file MKL46Z4.s
   Uses
      None



ARM Macro Assembler    Page 61 Alphabetic symbol ordering
Absolute symbols

Comment: MCG_C2_HF_LP_OSC unused
MCG_C2_HGO0_MASK 00000008

Symbol: MCG_C2_HGO0_MASK
   Definitions
      At line 877 in file MKL46Z4.s
   Uses
      None
Comment: MCG_C2_HGO0_MASK unused
MCG_C2_HGO0_SHIFT 00000003

Symbol: MCG_C2_HGO0_SHIFT
   Definitions
      At line 878 in file MKL46Z4.s
   Uses
      None
Comment: MCG_C2_HGO0_SHIFT unused
MCG_C2_IRCS_MASK 00000001

Symbol: MCG_C2_IRCS_MASK
   Definitions
      At line 883 in file MKL46Z4.s
   Uses
      None
Comment: MCG_C2_IRCS_MASK unused
MCG_C2_IRCS_SHIFT 00000000

Symbol: MCG_C2_IRCS_SHIFT
   Definitions
      At line 884 in file MKL46Z4.s
   Uses
      None
Comment: MCG_C2_IRCS_SHIFT unused
MCG_C2_LOCRE0_MASK 00000080

Symbol: MCG_C2_LOCRE0_MASK
   Definitions
      At line 873 in file MKL46Z4.s
   Uses
      None
Comment: MCG_C2_LOCRE0_MASK unused
MCG_C2_LOCRE0_SHIFT 00000007

Symbol: MCG_C2_LOCRE0_SHIFT
   Definitions
      At line 874 in file MKL46Z4.s
   Uses
      None
Comment: MCG_C2_LOCRE0_SHIFT unused
MCG_C2_LP_MASK 00000002

Symbol: MCG_C2_LP_MASK
   Definitions
      At line 881 in file MKL46Z4.s
   Uses
      None
Comment: MCG_C2_LP_MASK unused
MCG_C2_LP_SHIFT 00000001




ARM Macro Assembler    Page 62 Alphabetic symbol ordering
Absolute symbols

Symbol: MCG_C2_LP_SHIFT
   Definitions
      At line 882 in file MKL46Z4.s
   Uses
      None
Comment: MCG_C2_LP_SHIFT unused
MCG_C2_OFFSET 00000001

Symbol: MCG_C2_OFFSET
   Definitions
      At line 801 in file MKL46Z4.s
   Uses
      At line 807 in file MKL46Z4.s
Comment: MCG_C2_OFFSET used once
MCG_C2_RANGE0_HIGH_MASK 00000010

Symbol: MCG_C2_RANGE0_HIGH_MASK
   Definitions
      At line 885 in file MKL46Z4.s
   Uses
      At line 887 in file MKL46Z4.s
Comment: MCG_C2_RANGE0_HIGH_MASK used once
MCG_C2_RANGE0_MASK 00000030

Symbol: MCG_C2_RANGE0_MASK
   Definitions
      At line 875 in file MKL46Z4.s
   Uses
      None
Comment: MCG_C2_RANGE0_MASK unused
MCG_C2_RANGE0_SHIFT 00000004

Symbol: MCG_C2_RANGE0_SHIFT
   Definitions
      At line 876 in file MKL46Z4.s
   Uses
      None
Comment: MCG_C2_RANGE0_SHIFT unused
MCG_C4 40064003

Symbol: MCG_C4
   Definitions
      At line 808 in file MKL46Z4.s
   Uses
      None
Comment: MCG_C4 unused
MCG_C4_OFFSET 00000003

Symbol: MCG_C4_OFFSET
   Definitions
      At line 802 in file MKL46Z4.s
   Uses
      At line 808 in file MKL46Z4.s
Comment: MCG_C4_OFFSET used once
MCG_C5 40064004

Symbol: MCG_C5
   Definitions
      At line 809 in file MKL46Z4.s



ARM Macro Assembler    Page 63 Alphabetic symbol ordering
Absolute symbols

   Uses
      None
Comment: MCG_C5 unused
MCG_C5_OFFSET 00000004

Symbol: MCG_C5_OFFSET
   Definitions
      At line 803 in file MKL46Z4.s
   Uses
      At line 809 in file MKL46Z4.s
Comment: MCG_C5_OFFSET used once
MCG_C5_PLLCLKEN0_MASK 00000040

Symbol: MCG_C5_PLLCLKEN0_MASK
   Definitions
      At line 896 in file MKL46Z4.s
   Uses
      None
Comment: MCG_C5_PLLCLKEN0_MASK unused
MCG_C5_PLLCLKEN0_SHIFT 00000006

Symbol: MCG_C5_PLLCLKEN0_SHIFT
   Definitions
      At line 897 in file MKL46Z4.s
   Uses
      None
Comment: MCG_C5_PLLCLKEN0_SHIFT unused
MCG_C5_PLLSTEN0_MASK 00000020

Symbol: MCG_C5_PLLSTEN0_MASK
   Definitions
      At line 898 in file MKL46Z4.s
   Uses
      None
Comment: MCG_C5_PLLSTEN0_MASK unused
MCG_C5_PLLSTEN0_SHIFT 00000005

Symbol: MCG_C5_PLLSTEN0_SHIFT
   Definitions
      At line 899 in file MKL46Z4.s
   Uses
      None
Comment: MCG_C5_PLLSTEN0_SHIFT unused
MCG_C5_PRDIV0_DIV2 00000001

Symbol: MCG_C5_PRDIV0_DIV2
   Definitions
      At line 902 in file MKL46Z4.s
   Uses
      None
Comment: MCG_C5_PRDIV0_DIV2 unused
MCG_C5_PRDIV0_MASK 0000001F

Symbol: MCG_C5_PRDIV0_MASK
   Definitions
      At line 900 in file MKL46Z4.s
   Uses
      None
Comment: MCG_C5_PRDIV0_MASK unused



ARM Macro Assembler    Page 64 Alphabetic symbol ordering
Absolute symbols

MCG_C5_PRDIV0_SHIFT 00000000

Symbol: MCG_C5_PRDIV0_SHIFT
   Definitions
      At line 901 in file MKL46Z4.s
   Uses
      None
Comment: MCG_C5_PRDIV0_SHIFT unused
MCG_C6 40064005

Symbol: MCG_C6
   Definitions
      At line 810 in file MKL46Z4.s
   Uses
      None
Comment: MCG_C6 unused
MCG_C6_CME0_MASK 00000020

Symbol: MCG_C6_CME0_MASK
   Definitions
      At line 916 in file MKL46Z4.s
   Uses
      None
Comment: MCG_C6_CME0_MASK unused
MCG_C6_CME0_SHIFT 00000005

Symbol: MCG_C6_CME0_SHIFT
   Definitions
      At line 917 in file MKL46Z4.s
   Uses
      None
Comment: MCG_C6_CME0_SHIFT unused
MCG_C6_LOLIE0_MASK 00000080

Symbol: MCG_C6_LOLIE0_MASK
   Definitions
      At line 912 in file MKL46Z4.s
   Uses
      None
Comment: MCG_C6_LOLIE0_MASK unused
MCG_C6_LOLIE0_SHIFT 00000007

Symbol: MCG_C6_LOLIE0_SHIFT
   Definitions
      At line 913 in file MKL46Z4.s
   Uses
      None
Comment: MCG_C6_LOLIE0_SHIFT unused
MCG_C6_OFFSET 00000005

Symbol: MCG_C6_OFFSET
   Definitions
      At line 804 in file MKL46Z4.s
   Uses
      At line 810 in file MKL46Z4.s
Comment: MCG_C6_OFFSET used once
MCG_C6_PLLS_MASK 00000040

Symbol: MCG_C6_PLLS_MASK



ARM Macro Assembler    Page 65 Alphabetic symbol ordering
Absolute symbols

   Definitions
      At line 914 in file MKL46Z4.s
   Uses
      At line 921 in file MKL46Z4.s
Comment: MCG_C6_PLLS_MASK used once
MCG_C6_PLLS_PLL_MASK 00000040

Symbol: MCG_C6_PLLS_PLL_MASK
   Definitions
      At line 921 in file MKL46Z4.s
   Uses
      At line 923 in file MKL46Z4.s
Comment: MCG_C6_PLLS_PLL_MASK used once
MCG_C6_PLLS_SHIFT 00000006

Symbol: MCG_C6_PLLS_SHIFT
   Definitions
      At line 915 in file MKL46Z4.s
   Uses
      None
Comment: MCG_C6_PLLS_SHIFT unused
MCG_C6_PLL_MUL24 00000040

Symbol: MCG_C6_PLL_MUL24
   Definitions
      At line 923 in file MKL46Z4.s
   Uses
      None
Comment: MCG_C6_PLL_MUL24 unused
MCG_C6_VDIV0_MASK 0000001F

Symbol: MCG_C6_VDIV0_MASK
   Definitions
      At line 918 in file MKL46Z4.s
   Uses
      None
Comment: MCG_C6_VDIV0_MASK unused
MCG_C6_VDIV0_MUL24 00000000

Symbol: MCG_C6_VDIV0_MUL24
   Definitions
      At line 920 in file MKL46Z4.s
   Uses
      At line 923 in file MKL46Z4.s
Comment: MCG_C6_VDIV0_MUL24 used once
MCG_C6_VDIV0_SHIFT 00000000

Symbol: MCG_C6_VDIV0_SHIFT
   Definitions
      At line 919 in file MKL46Z4.s
   Uses
      None
Comment: MCG_C6_VDIV0_SHIFT unused
MCG_IPR E000E418

Symbol: MCG_IPR
   Definitions
      At line 1016 in file MKL46Z4.s
   Uses



ARM Macro Assembler    Page 66 Alphabetic symbol ordering
Absolute symbols

      None
Comment: MCG_IPR unused
MCG_IRQ 0000001B

Symbol: MCG_IRQ
   Definitions
      At line 1086 in file MKL46Z4.s
   Uses
      At line 1120 in file MKL46Z4.s
Comment: MCG_IRQ used once
MCG_IRQ_MASK 08000000

Symbol: MCG_IRQ_MASK
   Definitions
      At line 1120 in file MKL46Z4.s
   Uses
      None
Comment: MCG_IRQ_MASK unused
MCG_PRI_POS 0000001E

Symbol: MCG_PRI_POS
   Definitions
      At line 1052 in file MKL46Z4.s
   Uses
      None
Comment: MCG_PRI_POS unused
MCG_S 40064006

Symbol: MCG_S
   Definitions
      At line 811 in file MKL46Z4.s
   Uses
      None
Comment: MCG_S unused
MCG_S_CLKST_EXT_MASK 00000008

Symbol: MCG_S_CLKST_EXT_MASK
   Definitions
      At line 957 in file MKL46Z4.s
   Uses
      None
Comment: MCG_S_CLKST_EXT_MASK unused
MCG_S_CLKST_MASK 0000000C

Symbol: MCG_S_CLKST_MASK
   Definitions
      At line 951 in file MKL46Z4.s
   Uses
      None
Comment: MCG_S_CLKST_MASK unused
MCG_S_CLKST_PLL_MASK 0000000C

Symbol: MCG_S_CLKST_PLL_MASK
   Definitions
      At line 958 in file MKL46Z4.s
   Uses
      None
Comment: MCG_S_CLKST_PLL_MASK unused
MCG_S_CLKST_SHIFT 00000002



ARM Macro Assembler    Page 67 Alphabetic symbol ordering
Absolute symbols


Symbol: MCG_S_CLKST_SHIFT
   Definitions
      At line 952 in file MKL46Z4.s
   Uses
      None
Comment: MCG_S_CLKST_SHIFT unused
MCG_S_IRCST_MASK 00000001

Symbol: MCG_S_IRCST_MASK
   Definitions
      At line 955 in file MKL46Z4.s
   Uses
      None
Comment: MCG_S_IRCST_MASK unused
MCG_S_IRCST_SHIFT 00000000

Symbol: MCG_S_IRCST_SHIFT
   Definitions
      At line 956 in file MKL46Z4.s
   Uses
      None
Comment: MCG_S_IRCST_SHIFT unused
MCG_S_IREFST_MASK 00000010

Symbol: MCG_S_IREFST_MASK
   Definitions
      At line 949 in file MKL46Z4.s
   Uses
      None
Comment: MCG_S_IREFST_MASK unused
MCG_S_IREFST_SHIFT 00000004

Symbol: MCG_S_IREFST_SHIFT
   Definitions
      At line 950 in file MKL46Z4.s
   Uses
      None
Comment: MCG_S_IREFST_SHIFT unused
MCG_S_LOCK0_MASK 00000040

Symbol: MCG_S_LOCK0_MASK
   Definitions
      At line 945 in file MKL46Z4.s
   Uses
      None
Comment: MCG_S_LOCK0_MASK unused
MCG_S_LOCK0_SHIFT 00000006

Symbol: MCG_S_LOCK0_SHIFT
   Definitions
      At line 946 in file MKL46Z4.s
   Uses
      None
Comment: MCG_S_LOCK0_SHIFT unused
MCG_S_LOLS_MASK 00000080

Symbol: MCG_S_LOLS_MASK
   Definitions



ARM Macro Assembler    Page 68 Alphabetic symbol ordering
Absolute symbols

      At line 943 in file MKL46Z4.s
   Uses
      None
Comment: MCG_S_LOLS_MASK unused
MCG_S_LOLS_SHIFT 00000007

Symbol: MCG_S_LOLS_SHIFT
   Definitions
      At line 944 in file MKL46Z4.s
   Uses
      None
Comment: MCG_S_LOLS_SHIFT unused
MCG_S_OFFSET 00000006

Symbol: MCG_S_OFFSET
   Definitions
      At line 805 in file MKL46Z4.s
   Uses
      At line 811 in file MKL46Z4.s
Comment: MCG_S_OFFSET used once
MCG_S_OSCINIT0_MASK 00000002

Symbol: MCG_S_OSCINIT0_MASK
   Definitions
      At line 953 in file MKL46Z4.s
   Uses
      None
Comment: MCG_S_OSCINIT0_MASK unused
MCG_S_OSCINIT0_SHIFT 00000001

Symbol: MCG_S_OSCINIT0_SHIFT
   Definitions
      At line 954 in file MKL46Z4.s
   Uses
      None
Comment: MCG_S_OSCINIT0_SHIFT unused
MCG_S_PLLST_MASK 00000020

Symbol: MCG_S_PLLST_MASK
   Definitions
      At line 947 in file MKL46Z4.s
   Uses
      None
Comment: MCG_S_PLLST_MASK unused
MCG_S_PLLST_SHIFT 00000005

Symbol: MCG_S_PLLST_SHIFT
   Definitions
      At line 948 in file MKL46Z4.s
   Uses
      None
Comment: MCG_S_PLLST_SHIFT unused
MCG_Vector 0000002B

Symbol: MCG_Vector
   Definitions
      At line 1170 in file MKL46Z4.s
   Uses
      None



ARM Macro Assembler    Page 69 Alphabetic symbol ordering
Absolute symbols

Comment: MCG_Vector unused
MSBSHIFT 00000018

Symbol: MSBSHIFT
   Definitions
      At line 225 in file lab12_ASM.s
   Uses
      At line 345 in file lab12_ASM.s
      At line 353 in file lab12_ASM.s
      At line 452 in file lab12_ASM.s
      At line 461 in file lab12_ASM.s
      At line 500 in file lab12_ASM.s
      At line 509 in file lab12_ASM.s

NIBBLE_BITS 00000004

Symbol: NIBBLE_BITS
   Definitions
      At line 27 in file MKL46Z4.s
   Uses
      None
Comment: NIBBLE_BITS unused
NIBBLE_MASK 0000000F

Symbol: NIBBLE_MASK
   Definitions
      At line 24 in file MKL46Z4.s
   Uses
      None
Comment: NIBBLE_MASK unused
NMI_Vector02 00000002

Symbol: NMI_Vector02
   Definitions
      At line 1129 in file MKL46Z4.s
   Uses
      None
Comment: NMI_Vector02 unused
NUM_CHAR 00000030

Symbol: NUM_CHAR
   Definitions
      At line 241 in file lab12_ASM.s
   Uses
      At line 294 in file lab12_ASM.s
      At line 383 in file lab12_ASM.s

NUM_ENQD 00000011

Symbol: NUM_ENQD
   Definitions
      At line 234 in file lab12_ASM.s
   Uses
      At line 413 in file lab12_ASM.s
      At line 429 in file lab12_ASM.s
      At line 445 in file lab12_ASM.s
      At line 478 in file lab12_ASM.s
      At line 493 in file lab12_ASM.s




ARM Macro Assembler    Page 70 Alphabetic symbol ordering
Absolute symbols

NVIC_BASE E000E100

Symbol: NVIC_BASE
   Definitions
      At line 962 in file MKL46Z4.s
   Uses
      At line 975 in file MKL46Z4.s
      At line 976 in file MKL46Z4.s
      At line 977 in file MKL46Z4.s
      At line 978 in file MKL46Z4.s
      At line 979 in file MKL46Z4.s
      At line 980 in file MKL46Z4.s
      At line 981 in file MKL46Z4.s
      At line 982 in file MKL46Z4.s
      At line 983 in file MKL46Z4.s
      At line 984 in file MKL46Z4.s
      At line 985 in file MKL46Z4.s
      At line 986 in file MKL46Z4.s

NVIC_ICER E000E180

Symbol: NVIC_ICER
   Definitions
      At line 976 in file MKL46Z4.s
   Uses
      None
Comment: NVIC_ICER unused
NVIC_ICER_OFFSET 00000080

Symbol: NVIC_ICER_OFFSET
   Definitions
      At line 964 in file MKL46Z4.s
   Uses
      At line 976 in file MKL46Z4.s
Comment: NVIC_ICER_OFFSET used once
NVIC_ICER_PIT_MASK 00400000

Symbol: NVIC_ICER_PIT_MASK
   Definitions
      At line 34 in file lab12_ASM.s
   Uses
      None
Comment: NVIC_ICER_PIT_MASK unused
NVIC_ICER_UART0_MASK 00001000

Symbol: NVIC_ICER_UART0_MASK
   Definitions
      At line 35 in file lab12_ASM.s
   Uses
      None
Comment: NVIC_ICER_UART0_MASK unused
NVIC_ICPR E000E280

Symbol: NVIC_ICPR
   Definitions
      At line 978 in file MKL46Z4.s
   Uses
      At line 696 in file lab12_ASM.s
      At line 841 in file lab12_ASM.s



ARM Macro Assembler    Page 71 Alphabetic symbol ordering
Absolute symbols


NVIC_ICPR_OFFSET 00000180

Symbol: NVIC_ICPR_OFFSET
   Definitions
      At line 966 in file MKL46Z4.s
   Uses
      At line 978 in file MKL46Z4.s
Comment: NVIC_ICPR_OFFSET used once
NVIC_ICPR_PIT_MASK 00400000

Symbol: NVIC_ICPR_PIT_MASK
   Definitions
      At line 44 in file lab12_ASM.s
   Uses
      At line 842 in file lab12_ASM.s
Comment: NVIC_ICPR_PIT_MASK used once
NVIC_ICPR_UART0_MASK 00001000

Symbol: NVIC_ICPR_UART0_MASK
   Definitions
      At line 45 in file lab12_ASM.s
   Uses
      At line 697 in file lab12_ASM.s
Comment: NVIC_ICPR_UART0_MASK used once
NVIC_IPR0 E000E400

Symbol: NVIC_IPR0
   Definitions
      At line 979 in file MKL46Z4.s
   Uses
      At line 989 in file MKL46Z4.s
      At line 990 in file MKL46Z4.s
      At line 991 in file MKL46Z4.s
      At line 992 in file MKL46Z4.s

NVIC_IPR0_OFFSET 00000300

Symbol: NVIC_IPR0_OFFSET
   Definitions
      At line 967 in file MKL46Z4.s
   Uses
      At line 979 in file MKL46Z4.s
Comment: NVIC_IPR0_OFFSET used once
NVIC_IPR1 E000E404

Symbol: NVIC_IPR1
   Definitions
      At line 980 in file MKL46Z4.s
   Uses
      At line 993 in file MKL46Z4.s
      At line 994 in file MKL46Z4.s
      At line 995 in file MKL46Z4.s
      At line 996 in file MKL46Z4.s

NVIC_IPR1_OFFSET 00000304

Symbol: NVIC_IPR1_OFFSET
   Definitions



ARM Macro Assembler    Page 72 Alphabetic symbol ordering
Absolute symbols

      At line 968 in file MKL46Z4.s
   Uses
      At line 980 in file MKL46Z4.s
Comment: NVIC_IPR1_OFFSET used once
NVIC_IPR2 E000E408

Symbol: NVIC_IPR2
   Definitions
      At line 981 in file MKL46Z4.s
   Uses
      At line 997 in file MKL46Z4.s
      At line 998 in file MKL46Z4.s
      At line 999 in file MKL46Z4.s
      At line 1000 in file MKL46Z4.s

NVIC_IPR2_OFFSET 00000308

Symbol: NVIC_IPR2_OFFSET
   Definitions
      At line 969 in file MKL46Z4.s
   Uses
      At line 981 in file MKL46Z4.s
Comment: NVIC_IPR2_OFFSET used once
NVIC_IPR3 E000E40C

Symbol: NVIC_IPR3
   Definitions
      At line 982 in file MKL46Z4.s
   Uses
      At line 1001 in file MKL46Z4.s
      At line 1002 in file MKL46Z4.s
      At line 1003 in file MKL46Z4.s
      At line 1004 in file MKL46Z4.s

NVIC_IPR3_OFFSET 0000030C

Symbol: NVIC_IPR3_OFFSET
   Definitions
      At line 970 in file MKL46Z4.s
   Uses
      At line 982 in file MKL46Z4.s
Comment: NVIC_IPR3_OFFSET used once
NVIC_IPR4 E000E410

Symbol: NVIC_IPR4
   Definitions
      At line 983 in file MKL46Z4.s
   Uses
      At line 1005 in file MKL46Z4.s
      At line 1006 in file MKL46Z4.s
      At line 1007 in file MKL46Z4.s
      At line 1008 in file MKL46Z4.s

NVIC_IPR4_OFFSET 00000310

Symbol: NVIC_IPR4_OFFSET
   Definitions
      At line 971 in file MKL46Z4.s
   Uses



ARM Macro Assembler    Page 73 Alphabetic symbol ordering
Absolute symbols

      At line 983 in file MKL46Z4.s
Comment: NVIC_IPR4_OFFSET used once
NVIC_IPR5 E000E414

Symbol: NVIC_IPR5
   Definitions
      At line 984 in file MKL46Z4.s
   Uses
      At line 1009 in file MKL46Z4.s
      At line 1010 in file MKL46Z4.s
      At line 1011 in file MKL46Z4.s
      At line 1012 in file MKL46Z4.s

NVIC_IPR5_OFFSET 00000314

Symbol: NVIC_IPR5_OFFSET
   Definitions
      At line 972 in file MKL46Z4.s
   Uses
      At line 984 in file MKL46Z4.s
Comment: NVIC_IPR5_OFFSET used once
NVIC_IPR6 E000E418

Symbol: NVIC_IPR6
   Definitions
      At line 985 in file MKL46Z4.s
   Uses
      At line 1013 in file MKL46Z4.s
      At line 1014 in file MKL46Z4.s
      At line 1015 in file MKL46Z4.s
      At line 1016 in file MKL46Z4.s

NVIC_IPR6_OFFSET 00000318

Symbol: NVIC_IPR6_OFFSET
   Definitions
      At line 973 in file MKL46Z4.s
   Uses
      At line 985 in file MKL46Z4.s
Comment: NVIC_IPR6_OFFSET used once
NVIC_IPR7 E000E41C

Symbol: NVIC_IPR7
   Definitions
      At line 986 in file MKL46Z4.s
   Uses
      At line 1017 in file MKL46Z4.s
      At line 1018 in file MKL46Z4.s
      At line 1019 in file MKL46Z4.s
      At line 1020 in file MKL46Z4.s

NVIC_IPR7_OFFSET 0000031C

Symbol: NVIC_IPR7_OFFSET
   Definitions
      At line 974 in file MKL46Z4.s
   Uses
      At line 986 in file MKL46Z4.s
Comment: NVIC_IPR7_OFFSET used once



ARM Macro Assembler    Page 74 Alphabetic symbol ordering
Absolute symbols

NVIC_IPR_PIT_MASK 00C00000

Symbol: NVIC_IPR_PIT_MASK
   Definitions
      At line 51 in file lab12_ASM.s
   Uses
      At line 836 in file lab12_ASM.s
Comment: NVIC_IPR_PIT_MASK used once
NVIC_IPR_PIT_PRI_0 00000000

Symbol: NVIC_IPR_PIT_PRI_0
   Definitions
      At line 52 in file lab12_ASM.s
   Uses
      None
Comment: NVIC_IPR_PIT_PRI_0 unused
NVIC_IPR_UART0_MASK 000000C0

Symbol: NVIC_IPR_UART0_MASK
   Definitions
      At line 55 in file lab12_ASM.s
   Uses
      None
Comment: NVIC_IPR_UART0_MASK unused
NVIC_IPR_UART0_PRI_3 000000C0

Symbol: NVIC_IPR_UART0_PRI_3
   Definitions
      At line 56 in file lab12_ASM.s
   Uses
      At line 691 in file lab12_ASM.s
Comment: NVIC_IPR_UART0_PRI_3 used once
NVIC_ISER E000E100

Symbol: NVIC_ISER
   Definitions
      At line 975 in file MKL46Z4.s
   Uses
      At line 700 in file lab12_ASM.s
      At line 845 in file lab12_ASM.s

NVIC_ISER_OFFSET 00000000

Symbol: NVIC_ISER_OFFSET
   Definitions
      At line 963 in file MKL46Z4.s
   Uses
      At line 975 in file MKL46Z4.s
Comment: NVIC_ISER_OFFSET used once
NVIC_ISER_PIT_MASK 00400000

Symbol: NVIC_ISER_PIT_MASK
   Definitions
      At line 64 in file lab12_ASM.s
   Uses
      At line 846 in file lab12_ASM.s
Comment: NVIC_ISER_PIT_MASK used once
NVIC_ISER_UART0_MASK 00001000




ARM Macro Assembler    Page 75 Alphabetic symbol ordering
Absolute symbols

Symbol: NVIC_ISER_UART0_MASK
   Definitions
      At line 65 in file lab12_ASM.s
   Uses
      At line 701 in file lab12_ASM.s
Comment: NVIC_ISER_UART0_MASK used once
NVIC_ISPR E000E200

Symbol: NVIC_ISPR
   Definitions
      At line 977 in file MKL46Z4.s
   Uses
      None
Comment: NVIC_ISPR unused
NVIC_ISPR_OFFSET 00000100

Symbol: NVIC_ISPR_OFFSET
   Definitions
      At line 965 in file MKL46Z4.s
   Uses
      At line 977 in file MKL46Z4.s
Comment: NVIC_ISPR_OFFSET used once
OUT_PTR 00000004

Symbol: OUT_PTR
   Definitions
      At line 230 in file lab12_ASM.s
   Uses
      At line 405 in file lab12_ASM.s
      At line 482 in file lab12_ASM.s
      At line 492 in file lab12_ASM.s

PIT_BASE 40037000

Symbol: PIT_BASE
   Definitions
      At line 1181 in file MKL46Z4.s
   Uses
      At line 1199 in file MKL46Z4.s
      At line 1200 in file MKL46Z4.s
      At line 1201 in file MKL46Z4.s
      At line 1202 in file MKL46Z4.s
      At line 1203 in file MKL46Z4.s
      At line 1204 in file MKL46Z4.s
      At line 1205 in file MKL46Z4.s
      At line 1206 in file MKL46Z4.s
      At line 1207 in file MKL46Z4.s
      At line 1208 in file MKL46Z4.s
      At line 1209 in file MKL46Z4.s
      At line 849 in file lab12_ASM.s

PIT_CH0_BASE 40037100

Symbol: PIT_CH0_BASE
   Definitions
      At line 1182 in file MKL46Z4.s
   Uses
      At line 829 in file lab12_ASM.s
      At line 853 in file lab12_ASM.s



ARM Macro Assembler    Page 76 Alphabetic symbol ordering
Absolute symbols


PIT_CH1_BASE 40037110

Symbol: PIT_CH1_BASE
   Definitions
      At line 1183 in file MKL46Z4.s
   Uses
      None
Comment: PIT_CH1_BASE unused
PIT_CVAL0 40037104

Symbol: PIT_CVAL0
   Definitions
      At line 1203 in file MKL46Z4.s
   Uses
      None
Comment: PIT_CVAL0 unused
PIT_CVAL0_OFFSET 00000104

Symbol: PIT_CVAL0_OFFSET
   Definitions
      At line 1192 in file MKL46Z4.s
   Uses
      At line 1203 in file MKL46Z4.s
Comment: PIT_CVAL0_OFFSET used once
PIT_CVAL2 40037114

Symbol: PIT_CVAL2
   Definitions
      At line 1207 in file MKL46Z4.s
   Uses
      None
Comment: PIT_CVAL2 unused
PIT_CVAL2_OFFSET 00000114

Symbol: PIT_CVAL2_OFFSET
   Definitions
      At line 1196 in file MKL46Z4.s
   Uses
      At line 1207 in file MKL46Z4.s
Comment: PIT_CVAL2_OFFSET used once
PIT_CVAL_OFFSET 00000004

Symbol: PIT_CVAL_OFFSET
   Definitions
      At line 1185 in file MKL46Z4.s
   Uses
      None
Comment: PIT_CVAL_OFFSET unused
PIT_IPR E000E414

Symbol: PIT_IPR
   Definitions
      At line 1011 in file MKL46Z4.s
   Uses
      At line 835 in file lab12_ASM.s
Comment: PIT_IPR used once
PIT_IRQ 00000016




ARM Macro Assembler    Page 77 Alphabetic symbol ordering
Absolute symbols

Symbol: PIT_IRQ
   Definitions
      At line 1081 in file MKL46Z4.s
   Uses
      At line 1115 in file MKL46Z4.s
Comment: PIT_IRQ used once
PIT_IRQ_MASK 00400000

Symbol: PIT_IRQ_MASK
   Definitions
      At line 1115 in file MKL46Z4.s
   Uses
      At line 34 in file lab12_ASM.s
      At line 44 in file lab12_ASM.s
      At line 64 in file lab12_ASM.s

PIT_IRQ_PRIORITY 00000000

Symbol: PIT_IRQ_PRIORITY
   Definitions
      At line 50 in file lab12_ASM.s
   Uses
      At line 52 in file lab12_ASM.s
Comment: PIT_IRQ_PRIORITY used once
PIT_LDVAL0 40037100

Symbol: PIT_LDVAL0
   Definitions
      At line 1202 in file MKL46Z4.s
   Uses
      None
Comment: PIT_LDVAL0 unused
PIT_LDVAL0_OFFSET 00000100

Symbol: PIT_LDVAL0_OFFSET
   Definitions
      At line 1191 in file MKL46Z4.s
   Uses
      At line 1202 in file MKL46Z4.s
Comment: PIT_LDVAL0_OFFSET used once
PIT_LDVAL2 40037110

Symbol: PIT_LDVAL2
   Definitions
      At line 1206 in file MKL46Z4.s
   Uses
      None
Comment: PIT_LDVAL2 unused
PIT_LDVAL2_OFFSET 00000110

Symbol: PIT_LDVAL2_OFFSET
   Definitions
      At line 1195 in file MKL46Z4.s
   Uses
      At line 1206 in file MKL46Z4.s
Comment: PIT_LDVAL2_OFFSET used once
PIT_LDVAL_10ms 0003A97F

Symbol: PIT_LDVAL_10ms



ARM Macro Assembler    Page 78 Alphabetic symbol ordering
Absolute symbols

   Definitions
      At line 209 in file lab12_ASM.s
   Uses
      At line 854 in file lab12_ASM.s
Comment: PIT_LDVAL_10ms used once
PIT_LDVAL_OFFSET 00000000

Symbol: PIT_LDVAL_OFFSET
   Definitions
      At line 1184 in file MKL46Z4.s
   Uses
      At line 855 in file lab12_ASM.s
Comment: PIT_LDVAL_OFFSET used once
PIT_LTMR64H 400370E0

Symbol: PIT_LTMR64H
   Definitions
      At line 1200 in file MKL46Z4.s
   Uses
      None
Comment: PIT_LTMR64H unused
PIT_LTMR64H_OFFSET 000000E0

Symbol: PIT_LTMR64H_OFFSET
   Definitions
      At line 1189 in file MKL46Z4.s
   Uses
      At line 1200 in file MKL46Z4.s
Comment: PIT_LTMR64H_OFFSET used once
PIT_LTMR64L 400370E4

Symbol: PIT_LTMR64L
   Definitions
      At line 1201 in file MKL46Z4.s
   Uses
      None
Comment: PIT_LTMR64L unused
PIT_LTMR64L_OFFSET 000000E4

Symbol: PIT_LTMR64L_OFFSET
   Definitions
      At line 1190 in file MKL46Z4.s
   Uses
      At line 1201 in file MKL46Z4.s
Comment: PIT_LTMR64L_OFFSET used once
PIT_MCR 40037000

Symbol: PIT_MCR
   Definitions
      At line 1199 in file MKL46Z4.s
   Uses
      None
Comment: PIT_MCR unused
PIT_MCR_EN_FRZ 00000001

Symbol: PIT_MCR_EN_FRZ
   Definitions
      At line 216 in file lab12_ASM.s
   Uses



ARM Macro Assembler    Page 79 Alphabetic symbol ordering
Absolute symbols

      At line 850 in file lab12_ASM.s
Comment: PIT_MCR_EN_FRZ used once
PIT_MCR_FRZ_MASK 00000001

Symbol: PIT_MCR_FRZ_MASK
   Definitions
      At line 1238 in file MKL46Z4.s
   Uses
      At line 216 in file lab12_ASM.s
Comment: PIT_MCR_FRZ_MASK used once
PIT_MCR_FRZ_SHIFT 00000000

Symbol: PIT_MCR_FRZ_SHIFT
   Definitions
      At line 1239 in file MKL46Z4.s
   Uses
      None
Comment: PIT_MCR_FRZ_SHIFT unused
PIT_MCR_MDIS_MASK 00000002

Symbol: PIT_MCR_MDIS_MASK
   Definitions
      At line 1236 in file MKL46Z4.s
   Uses
      None
Comment: PIT_MCR_MDIS_MASK unused
PIT_MCR_MDIS_SHIFT 00000001

Symbol: PIT_MCR_MDIS_SHIFT
   Definitions
      At line 1237 in file MKL46Z4.s
   Uses
      None
Comment: PIT_MCR_MDIS_SHIFT unused
PIT_MCR_OFFSET 00000000

Symbol: PIT_MCR_OFFSET
   Definitions
      At line 1188 in file MKL46Z4.s
   Uses
      At line 1199 in file MKL46Z4.s
      At line 851 in file lab12_ASM.s

PIT_PRI_POS 00000016

Symbol: PIT_PRI_POS
   Definitions
      At line 1047 in file MKL46Z4.s
   Uses
      At line 51 in file lab12_ASM.s
Comment: PIT_PRI_POS used once
PIT_TCTRL0 40037108

Symbol: PIT_TCTRL0
   Definitions
      At line 1204 in file MKL46Z4.s
   Uses
      None
Comment: PIT_TCTRL0 unused



ARM Macro Assembler    Page 80 Alphabetic symbol ordering
Absolute symbols

PIT_TCTRL0_OFFSET 00000108

Symbol: PIT_TCTRL0_OFFSET
   Definitions
      At line 1193 in file MKL46Z4.s
   Uses
      At line 1204 in file MKL46Z4.s
Comment: PIT_TCTRL0_OFFSET used once
PIT_TCTRL2 40037118

Symbol: PIT_TCTRL2
   Definitions
      At line 1208 in file MKL46Z4.s
   Uses
      None
Comment: PIT_TCTRL2 unused
PIT_TCTRL2_OFFSET 00000118

Symbol: PIT_TCTRL2_OFFSET
   Definitions
      At line 1197 in file MKL46Z4.s
   Uses
      At line 1208 in file MKL46Z4.s
Comment: PIT_TCTRL2_OFFSET used once
PIT_TCTRL_CHN_MASK 00000004

Symbol: PIT_TCTRL_CHN_MASK
   Definitions
      At line 1249 in file MKL46Z4.s
   Uses
      None
Comment: PIT_TCTRL_CHN_MASK unused
PIT_TCTRL_CHN_SHIFT 00000002

Symbol: PIT_TCTRL_CHN_SHIFT
   Definitions
      At line 1250 in file MKL46Z4.s
   Uses
      None
Comment: PIT_TCTRL_CHN_SHIFT unused
PIT_TCTRL_CH_IE 00000003

Symbol: PIT_TCTRL_CH_IE
   Definitions
      At line 222 in file lab12_ASM.s
   Uses
      At line 857 in file lab12_ASM.s
Comment: PIT_TCTRL_CH_IE used once
PIT_TCTRL_OFFSET 00000008

Symbol: PIT_TCTRL_OFFSET
   Definitions
      At line 1186 in file MKL46Z4.s
   Uses
      At line 858 in file lab12_ASM.s
Comment: PIT_TCTRL_OFFSET used once
PIT_TCTRL_TEN_MASK 00000001

Symbol: PIT_TCTRL_TEN_MASK



ARM Macro Assembler    Page 81 Alphabetic symbol ordering
Absolute symbols

   Definitions
      At line 1253 in file MKL46Z4.s
   Uses
      At line 222 in file lab12_ASM.s
      At line 830 in file lab12_ASM.s

PIT_TCTRL_TEN_SHIFT 00000000

Symbol: PIT_TCTRL_TEN_SHIFT
   Definitions
      At line 1254 in file MKL46Z4.s
   Uses
      None
Comment: PIT_TCTRL_TEN_SHIFT unused
PIT_TCTRL_TIE_MASK 00000002

Symbol: PIT_TCTRL_TIE_MASK
   Definitions
      At line 1251 in file MKL46Z4.s
   Uses
      At line 222 in file lab12_ASM.s
Comment: PIT_TCTRL_TIE_MASK used once
PIT_TCTRL_TIE_SHIFT 00000001

Symbol: PIT_TCTRL_TIE_SHIFT
   Definitions
      At line 1252 in file MKL46Z4.s
   Uses
      None
Comment: PIT_TCTRL_TIE_SHIFT unused
PIT_TFLG0 4003710C

Symbol: PIT_TFLG0
   Definitions
      At line 1205 in file MKL46Z4.s
   Uses
      At line 810 in file lab12_ASM.s
Comment: PIT_TFLG0 used once
PIT_TFLG0_OFFSET 0000010C

Symbol: PIT_TFLG0_OFFSET
   Definitions
      At line 1194 in file MKL46Z4.s
   Uses
      At line 1205 in file MKL46Z4.s
Comment: PIT_TFLG0_OFFSET used once
PIT_TFLG2 4003711C

Symbol: PIT_TFLG2
   Definitions
      At line 1209 in file MKL46Z4.s
   Uses
      None
Comment: PIT_TFLG2 unused
PIT_TFLG2_OFFSET 0000011C

Symbol: PIT_TFLG2_OFFSET
   Definitions
      At line 1198 in file MKL46Z4.s



ARM Macro Assembler    Page 82 Alphabetic symbol ordering
Absolute symbols

   Uses
      At line 1209 in file MKL46Z4.s
Comment: PIT_TFLG2_OFFSET used once
PIT_TFLG_OFFSET 0000000C

Symbol: PIT_TFLG_OFFSET
   Definitions
      At line 1187 in file MKL46Z4.s
   Uses
      None
Comment: PIT_TFLG_OFFSET unused
PIT_TFLG_TIF_MASK 00000001

Symbol: PIT_TFLG_TIF_MASK
   Definitions
      At line 1260 in file MKL46Z4.s
   Uses
      At line 811 in file lab12_ASM.s
Comment: PIT_TFLG_TIF_MASK used once
PIT_TFLG_TIF_SHIFT 00000000

Symbol: PIT_TFLG_TIF_SHIFT
   Definitions
      At line 1261 in file MKL46Z4.s
   Uses
      None
Comment: PIT_TFLG_TIF_SHIFT unused
PIT_Vector 00000026

Symbol: PIT_Vector
   Definitions
      At line 1165 in file MKL46Z4.s
   Uses
      None
Comment: PIT_Vector unused
PMC_IPR E000E404

Symbol: PMC_IPR
   Definitions
      At line 995 in file MKL46Z4.s
   Uses
      None
Comment: PMC_IPR unused
PMC_IRQ 00000006

Symbol: PMC_IRQ
   Definitions
      At line 1065 in file MKL46Z4.s
   Uses
      At line 1099 in file MKL46Z4.s
Comment: PMC_IRQ used once
PMC_IRQ_MASK 00000040

Symbol: PMC_IRQ_MASK
   Definitions
      At line 1099 in file MKL46Z4.s
   Uses
      None
Comment: PMC_IRQ_MASK unused



ARM Macro Assembler    Page 83 Alphabetic symbol ordering
Absolute symbols

PMC_PRI_POS 00000016

Symbol: PMC_PRI_POS
   Definitions
      At line 1031 in file MKL46Z4.s
   Uses
      None
Comment: PMC_PRI_POS unused
PMC_Vector 00000016

Symbol: PMC_Vector
   Definitions
      At line 1149 in file MKL46Z4.s
   Uses
      None
Comment: PMC_Vector unused
PORTA_BASE 40049000

Symbol: PORTA_BASE
   Definitions
      At line 1323 in file MKL46Z4.s
   Uses
      At line 1359 in file MKL46Z4.s
      At line 1360 in file MKL46Z4.s
      At line 1361 in file MKL46Z4.s
      At line 1362 in file MKL46Z4.s
      At line 1363 in file MKL46Z4.s
      At line 1364 in file MKL46Z4.s
      At line 1365 in file MKL46Z4.s
      At line 1366 in file MKL46Z4.s
      At line 1367 in file MKL46Z4.s
      At line 1368 in file MKL46Z4.s
      At line 1369 in file MKL46Z4.s
      At line 1370 in file MKL46Z4.s
      At line 1371 in file MKL46Z4.s
      At line 1372 in file MKL46Z4.s
      At line 1373 in file MKL46Z4.s
      At line 1374 in file MKL46Z4.s
      At line 1375 in file MKL46Z4.s
      At line 1376 in file MKL46Z4.s
      At line 1377 in file MKL46Z4.s
      At line 1378 in file MKL46Z4.s
      At line 1379 in file MKL46Z4.s
      At line 1380 in file MKL46Z4.s
      At line 1381 in file MKL46Z4.s
      At line 1382 in file MKL46Z4.s
      At line 1383 in file MKL46Z4.s
      At line 1384 in file MKL46Z4.s
      At line 1385 in file MKL46Z4.s
      At line 1386 in file MKL46Z4.s
      At line 1387 in file MKL46Z4.s
      At line 1388 in file MKL46Z4.s
      At line 1389 in file MKL46Z4.s
      At line 1390 in file MKL46Z4.s
      At line 1391 in file MKL46Z4.s
      At line 1392 in file MKL46Z4.s
      At line 1393 in file MKL46Z4.s

PORTA_GPCHR 40049084



ARM Macro Assembler    Page 84 Alphabetic symbol ordering
Absolute symbols


Symbol: PORTA_GPCHR
   Definitions
      At line 1392 in file MKL46Z4.s
   Uses
      None
Comment: PORTA_GPCHR unused
PORTA_GPCHR_OFFSET 00000084

Symbol: PORTA_GPCHR_OFFSET
   Definitions
      At line 1357 in file MKL46Z4.s
   Uses
      At line 1392 in file MKL46Z4.s
Comment: PORTA_GPCHR_OFFSET used once
PORTA_GPCLR 40049080

Symbol: PORTA_GPCLR
   Definitions
      At line 1391 in file MKL46Z4.s
   Uses
      None
Comment: PORTA_GPCLR unused
PORTA_GPCLR_OFFSET 00000080

Symbol: PORTA_GPCLR_OFFSET
   Definitions
      At line 1356 in file MKL46Z4.s
   Uses
      At line 1391 in file MKL46Z4.s
Comment: PORTA_GPCLR_OFFSET used once
PORTA_IPR E000E41C

Symbol: PORTA_IPR
   Definitions
      At line 1019 in file MKL46Z4.s
   Uses
      None
Comment: PORTA_IPR unused
PORTA_IRQ 0000001E

Symbol: PORTA_IRQ
   Definitions
      At line 1089 in file MKL46Z4.s
   Uses
      At line 1123 in file MKL46Z4.s
Comment: PORTA_IRQ used once
PORTA_IRQ_MASK 40000000

Symbol: PORTA_IRQ_MASK
   Definitions
      At line 1123 in file MKL46Z4.s
   Uses
      None
Comment: PORTA_IRQ_MASK unused
PORTA_ISFR 400490A0

Symbol: PORTA_ISFR
   Definitions



ARM Macro Assembler    Page 85 Alphabetic symbol ordering
Absolute symbols

      At line 1393 in file MKL46Z4.s
   Uses
      None
Comment: PORTA_ISFR unused
PORTA_ISFR_OFFSET 000000A0

Symbol: PORTA_ISFR_OFFSET
   Definitions
      At line 1358 in file MKL46Z4.s
   Uses
      At line 1393 in file MKL46Z4.s
Comment: PORTA_ISFR_OFFSET used once
PORTA_PCR0 40049000

Symbol: PORTA_PCR0
   Definitions
      At line 1359 in file MKL46Z4.s
   Uses
      None
Comment: PORTA_PCR0 unused
PORTA_PCR0_OFFSET 00000000

Symbol: PORTA_PCR0_OFFSET
   Definitions
      At line 1324 in file MKL46Z4.s
   Uses
      At line 1359 in file MKL46Z4.s
Comment: PORTA_PCR0_OFFSET used once
PORTA_PCR1 40049004

Symbol: PORTA_PCR1
   Definitions
      At line 1360 in file MKL46Z4.s
   Uses
      At line 654 in file lab12_ASM.s
Comment: PORTA_PCR1 used once
PORTA_PCR10 40049028

Symbol: PORTA_PCR10
   Definitions
      At line 1369 in file MKL46Z4.s
   Uses
      None
Comment: PORTA_PCR10 unused
PORTA_PCR10_OFFSET 00000028

Symbol: PORTA_PCR10_OFFSET
   Definitions
      At line 1334 in file MKL46Z4.s
   Uses
      At line 1369 in file MKL46Z4.s
Comment: PORTA_PCR10_OFFSET used once
PORTA_PCR11 4004902C

Symbol: PORTA_PCR11
   Definitions
      At line 1370 in file MKL46Z4.s
   Uses
      None



ARM Macro Assembler    Page 86 Alphabetic symbol ordering
Absolute symbols

Comment: PORTA_PCR11 unused
PORTA_PCR11_OFFSET 0000002C

Symbol: PORTA_PCR11_OFFSET
   Definitions
      At line 1335 in file MKL46Z4.s
   Uses
      At line 1370 in file MKL46Z4.s
Comment: PORTA_PCR11_OFFSET used once
PORTA_PCR12 40049030

Symbol: PORTA_PCR12
   Definitions
      At line 1371 in file MKL46Z4.s
   Uses
      None
Comment: PORTA_PCR12 unused
PORTA_PCR12_OFFSET 00000030

Symbol: PORTA_PCR12_OFFSET
   Definitions
      At line 1336 in file MKL46Z4.s
   Uses
      At line 1371 in file MKL46Z4.s
Comment: PORTA_PCR12_OFFSET used once
PORTA_PCR13 40049034

Symbol: PORTA_PCR13
   Definitions
      At line 1372 in file MKL46Z4.s
   Uses
      None
Comment: PORTA_PCR13 unused
PORTA_PCR13_OFFSET 00000034

Symbol: PORTA_PCR13_OFFSET
   Definitions
      At line 1337 in file MKL46Z4.s
   Uses
      At line 1372 in file MKL46Z4.s
Comment: PORTA_PCR13_OFFSET used once
PORTA_PCR14 40049038

Symbol: PORTA_PCR14
   Definitions
      At line 1373 in file MKL46Z4.s
   Uses
      None
Comment: PORTA_PCR14 unused
PORTA_PCR14_OFFSET 00000038

Symbol: PORTA_PCR14_OFFSET
   Definitions
      At line 1338 in file MKL46Z4.s
   Uses
      At line 1373 in file MKL46Z4.s
Comment: PORTA_PCR14_OFFSET used once
PORTA_PCR15 4004903C




ARM Macro Assembler    Page 87 Alphabetic symbol ordering
Absolute symbols

Symbol: PORTA_PCR15
   Definitions
      At line 1374 in file MKL46Z4.s
   Uses
      None
Comment: PORTA_PCR15 unused
PORTA_PCR15_OFFSET 0000003C

Symbol: PORTA_PCR15_OFFSET
   Definitions
      At line 1339 in file MKL46Z4.s
   Uses
      At line 1374 in file MKL46Z4.s
Comment: PORTA_PCR15_OFFSET used once
PORTA_PCR16 40049040

Symbol: PORTA_PCR16
   Definitions
      At line 1375 in file MKL46Z4.s
   Uses
      None
Comment: PORTA_PCR16 unused
PORTA_PCR16_OFFSET 00000040

Symbol: PORTA_PCR16_OFFSET
   Definitions
      At line 1340 in file MKL46Z4.s
   Uses
      At line 1375 in file MKL46Z4.s
Comment: PORTA_PCR16_OFFSET used once
PORTA_PCR17 40049044

Symbol: PORTA_PCR17
   Definitions
      At line 1376 in file MKL46Z4.s
   Uses
      None
Comment: PORTA_PCR17 unused
PORTA_PCR17_OFFSET 00000044

Symbol: PORTA_PCR17_OFFSET
   Definitions
      At line 1341 in file MKL46Z4.s
   Uses
      At line 1376 in file MKL46Z4.s
Comment: PORTA_PCR17_OFFSET used once
PORTA_PCR18 40049048

Symbol: PORTA_PCR18
   Definitions
      At line 1377 in file MKL46Z4.s
   Uses
      None
Comment: PORTA_PCR18 unused
PORTA_PCR18_OFFSET 00000048

Symbol: PORTA_PCR18_OFFSET
   Definitions
      At line 1342 in file MKL46Z4.s



ARM Macro Assembler    Page 88 Alphabetic symbol ordering
Absolute symbols

   Uses
      At line 1377 in file MKL46Z4.s
Comment: PORTA_PCR18_OFFSET used once
PORTA_PCR19 4004904C

Symbol: PORTA_PCR19
   Definitions
      At line 1378 in file MKL46Z4.s
   Uses
      None
Comment: PORTA_PCR19 unused
PORTA_PCR19_OFFSET 0000004C

Symbol: PORTA_PCR19_OFFSET
   Definitions
      At line 1343 in file MKL46Z4.s
   Uses
      At line 1378 in file MKL46Z4.s
Comment: PORTA_PCR19_OFFSET used once
PORTA_PCR1_OFFSET 00000004

Symbol: PORTA_PCR1_OFFSET
   Definitions
      At line 1325 in file MKL46Z4.s
   Uses
      At line 1360 in file MKL46Z4.s
Comment: PORTA_PCR1_OFFSET used once
PORTA_PCR2 40049008

Symbol: PORTA_PCR2
   Definitions
      At line 1361 in file MKL46Z4.s
   Uses
      At line 658 in file lab12_ASM.s
Comment: PORTA_PCR2 used once
PORTA_PCR20 40049050

Symbol: PORTA_PCR20
   Definitions
      At line 1379 in file MKL46Z4.s
   Uses
      None
Comment: PORTA_PCR20 unused
PORTA_PCR20_OFFSET 00000050

Symbol: PORTA_PCR20_OFFSET
   Definitions
      At line 1344 in file MKL46Z4.s
   Uses
      At line 1379 in file MKL46Z4.s
Comment: PORTA_PCR20_OFFSET used once
PORTA_PCR21 40049054

Symbol: PORTA_PCR21
   Definitions
      At line 1380 in file MKL46Z4.s
   Uses
      None
Comment: PORTA_PCR21 unused



ARM Macro Assembler    Page 89 Alphabetic symbol ordering
Absolute symbols

PORTA_PCR21_OFFSET 00000054

Symbol: PORTA_PCR21_OFFSET
   Definitions
      At line 1345 in file MKL46Z4.s
   Uses
      At line 1380 in file MKL46Z4.s
Comment: PORTA_PCR21_OFFSET used once
PORTA_PCR22 40049058

Symbol: PORTA_PCR22
   Definitions
      At line 1381 in file MKL46Z4.s
   Uses
      None
Comment: PORTA_PCR22 unused
PORTA_PCR22_OFFSET 00000058

Symbol: PORTA_PCR22_OFFSET
   Definitions
      At line 1346 in file MKL46Z4.s
   Uses
      At line 1381 in file MKL46Z4.s
Comment: PORTA_PCR22_OFFSET used once
PORTA_PCR23 4004905C

Symbol: PORTA_PCR23
   Definitions
      At line 1382 in file MKL46Z4.s
   Uses
      None
Comment: PORTA_PCR23 unused
PORTA_PCR23_OFFSET 0000005C

Symbol: PORTA_PCR23_OFFSET
   Definitions
      At line 1347 in file MKL46Z4.s
   Uses
      At line 1382 in file MKL46Z4.s
Comment: PORTA_PCR23_OFFSET used once
PORTA_PCR24 40049060

Symbol: PORTA_PCR24
   Definitions
      At line 1383 in file MKL46Z4.s
   Uses
      None
Comment: PORTA_PCR24 unused
PORTA_PCR24_OFFSET 00000060

Symbol: PORTA_PCR24_OFFSET
   Definitions
      At line 1348 in file MKL46Z4.s
   Uses
      At line 1383 in file MKL46Z4.s
Comment: PORTA_PCR24_OFFSET used once
PORTA_PCR25 40049064

Symbol: PORTA_PCR25



ARM Macro Assembler    Page 90 Alphabetic symbol ordering
Absolute symbols

   Definitions
      At line 1384 in file MKL46Z4.s
   Uses
      None
Comment: PORTA_PCR25 unused
PORTA_PCR25_OFFSET 00000064

Symbol: PORTA_PCR25_OFFSET
   Definitions
      At line 1349 in file MKL46Z4.s
   Uses
      At line 1384 in file MKL46Z4.s
Comment: PORTA_PCR25_OFFSET used once
PORTA_PCR26 40049068

Symbol: PORTA_PCR26
   Definitions
      At line 1385 in file MKL46Z4.s
   Uses
      None
Comment: PORTA_PCR26 unused
PORTA_PCR26_OFFSET 00000068

Symbol: PORTA_PCR26_OFFSET
   Definitions
      At line 1350 in file MKL46Z4.s
   Uses
      At line 1385 in file MKL46Z4.s
Comment: PORTA_PCR26_OFFSET used once
PORTA_PCR27 4004906C

Symbol: PORTA_PCR27
   Definitions
      At line 1386 in file MKL46Z4.s
   Uses
      None
Comment: PORTA_PCR27 unused
PORTA_PCR27_OFFSET 0000006C

Symbol: PORTA_PCR27_OFFSET
   Definitions
      At line 1351 in file MKL46Z4.s
   Uses
      At line 1386 in file MKL46Z4.s
Comment: PORTA_PCR27_OFFSET used once
PORTA_PCR28 40049070

Symbol: PORTA_PCR28
   Definitions
      At line 1387 in file MKL46Z4.s
   Uses
      None
Comment: PORTA_PCR28 unused
PORTA_PCR28_OFFSET 00000070

Symbol: PORTA_PCR28_OFFSET
   Definitions
      At line 1352 in file MKL46Z4.s
   Uses



ARM Macro Assembler    Page 91 Alphabetic symbol ordering
Absolute symbols

      At line 1387 in file MKL46Z4.s
Comment: PORTA_PCR28_OFFSET used once
PORTA_PCR29 40049074

Symbol: PORTA_PCR29
   Definitions
      At line 1388 in file MKL46Z4.s
   Uses
      None
Comment: PORTA_PCR29 unused
PORTA_PCR29_OFFSET 00000074

Symbol: PORTA_PCR29_OFFSET
   Definitions
      At line 1353 in file MKL46Z4.s
   Uses
      At line 1388 in file MKL46Z4.s
Comment: PORTA_PCR29_OFFSET used once
PORTA_PCR2_OFFSET 00000008

Symbol: PORTA_PCR2_OFFSET
   Definitions
      At line 1326 in file MKL46Z4.s
   Uses
      At line 1361 in file MKL46Z4.s
Comment: PORTA_PCR2_OFFSET used once
PORTA_PCR3 4004900C

Symbol: PORTA_PCR3
   Definitions
      At line 1362 in file MKL46Z4.s
   Uses
      None
Comment: PORTA_PCR3 unused
PORTA_PCR30 40049078

Symbol: PORTA_PCR30
   Definitions
      At line 1389 in file MKL46Z4.s
   Uses
      None
Comment: PORTA_PCR30 unused
PORTA_PCR30_OFFSET 00000078

Symbol: PORTA_PCR30_OFFSET
   Definitions
      At line 1354 in file MKL46Z4.s
   Uses
      At line 1389 in file MKL46Z4.s
Comment: PORTA_PCR30_OFFSET used once
PORTA_PCR31 4004907C

Symbol: PORTA_PCR31
   Definitions
      At line 1390 in file MKL46Z4.s
   Uses
      None
Comment: PORTA_PCR31 unused
PORTA_PCR31_OFFSET 0000007C



ARM Macro Assembler    Page 92 Alphabetic symbol ordering
Absolute symbols


Symbol: PORTA_PCR31_OFFSET
   Definitions
      At line 1355 in file MKL46Z4.s
   Uses
      At line 1390 in file MKL46Z4.s
Comment: PORTA_PCR31_OFFSET used once
PORTA_PCR3_OFFSET 0000000C

Symbol: PORTA_PCR3_OFFSET
   Definitions
      At line 1327 in file MKL46Z4.s
   Uses
      At line 1362 in file MKL46Z4.s
Comment: PORTA_PCR3_OFFSET used once
PORTA_PCR4 40049010

Symbol: PORTA_PCR4
   Definitions
      At line 1363 in file MKL46Z4.s
   Uses
      None
Comment: PORTA_PCR4 unused
PORTA_PCR4_OFFSET 00000010

Symbol: PORTA_PCR4_OFFSET
   Definitions
      At line 1328 in file MKL46Z4.s
   Uses
      At line 1363 in file MKL46Z4.s
Comment: PORTA_PCR4_OFFSET used once
PORTA_PCR5 40049014

Symbol: PORTA_PCR5
   Definitions
      At line 1364 in file MKL46Z4.s
   Uses
      None
Comment: PORTA_PCR5 unused
PORTA_PCR5_OFFSET 00000014

Symbol: PORTA_PCR5_OFFSET
   Definitions
      At line 1329 in file MKL46Z4.s
   Uses
      At line 1364 in file MKL46Z4.s
Comment: PORTA_PCR5_OFFSET used once
PORTA_PCR6 40049018

Symbol: PORTA_PCR6
   Definitions
      At line 1365 in file MKL46Z4.s
   Uses
      None
Comment: PORTA_PCR6 unused
PORTA_PCR6_OFFSET 00000018

Symbol: PORTA_PCR6_OFFSET
   Definitions



ARM Macro Assembler    Page 93 Alphabetic symbol ordering
Absolute symbols

      At line 1330 in file MKL46Z4.s
   Uses
      At line 1365 in file MKL46Z4.s
Comment: PORTA_PCR6_OFFSET used once
PORTA_PCR7 4004901C

Symbol: PORTA_PCR7
   Definitions
      At line 1366 in file MKL46Z4.s
   Uses
      None
Comment: PORTA_PCR7 unused
PORTA_PCR7_OFFSET 0000001C

Symbol: PORTA_PCR7_OFFSET
   Definitions
      At line 1331 in file MKL46Z4.s
   Uses
      At line 1366 in file MKL46Z4.s
Comment: PORTA_PCR7_OFFSET used once
PORTA_PCR8 40049020

Symbol: PORTA_PCR8
   Definitions
      At line 1367 in file MKL46Z4.s
   Uses
      None
Comment: PORTA_PCR8 unused
PORTA_PCR8_OFFSET 00000020

Symbol: PORTA_PCR8_OFFSET
   Definitions
      At line 1332 in file MKL46Z4.s
   Uses
      At line 1367 in file MKL46Z4.s
Comment: PORTA_PCR8_OFFSET used once
PORTA_PCR9 40049024

Symbol: PORTA_PCR9
   Definitions
      At line 1368 in file MKL46Z4.s
   Uses
      None
Comment: PORTA_PCR9 unused
PORTA_PCR9_OFFSET 00000024

Symbol: PORTA_PCR9_OFFSET
   Definitions
      At line 1333 in file MKL46Z4.s
   Uses
      At line 1368 in file MKL46Z4.s
Comment: PORTA_PCR9_OFFSET used once
PORTA_PRI_POS 00000016

Symbol: PORTA_PRI_POS
   Definitions
      At line 1055 in file MKL46Z4.s
   Uses
      None



ARM Macro Assembler    Page 94 Alphabetic symbol ordering
Absolute symbols

Comment: PORTA_PRI_POS unused
PORTA_Vector 0000002E

Symbol: PORTA_Vector
   Definitions
      At line 1173 in file MKL46Z4.s
   Uses
      None
Comment: PORTA_Vector unused
PORTB_BASE 4004A000

Symbol: PORTB_BASE
   Definitions
      At line 1396 in file MKL46Z4.s
   Uses
      At line 1432 in file MKL46Z4.s
      At line 1433 in file MKL46Z4.s
      At line 1434 in file MKL46Z4.s
      At line 1435 in file MKL46Z4.s
      At line 1436 in file MKL46Z4.s
      At line 1437 in file MKL46Z4.s
      At line 1438 in file MKL46Z4.s
      At line 1439 in file MKL46Z4.s
      At line 1440 in file MKL46Z4.s
      At line 1441 in file MKL46Z4.s
      At line 1442 in file MKL46Z4.s
      At line 1443 in file MKL46Z4.s
      At line 1444 in file MKL46Z4.s
      At line 1445 in file MKL46Z4.s
      At line 1446 in file MKL46Z4.s
      At line 1447 in file MKL46Z4.s
      At line 1448 in file MKL46Z4.s
      At line 1449 in file MKL46Z4.s
      At line 1450 in file MKL46Z4.s
      At line 1451 in file MKL46Z4.s
      At line 1452 in file MKL46Z4.s
      At line 1453 in file MKL46Z4.s
      At line 1454 in file MKL46Z4.s
      At line 1455 in file MKL46Z4.s
      At line 1456 in file MKL46Z4.s
      At line 1457 in file MKL46Z4.s
      At line 1458 in file MKL46Z4.s
      At line 1459 in file MKL46Z4.s
      At line 1460 in file MKL46Z4.s
      At line 1461 in file MKL46Z4.s
      At line 1462 in file MKL46Z4.s
      At line 1463 in file MKL46Z4.s
      At line 1464 in file MKL46Z4.s
      At line 1465 in file MKL46Z4.s
      At line 1466 in file MKL46Z4.s

PORTB_GPCHR 4004A084

Symbol: PORTB_GPCHR
   Definitions
      At line 1465 in file MKL46Z4.s
   Uses
      None
Comment: PORTB_GPCHR unused



ARM Macro Assembler    Page 95 Alphabetic symbol ordering
Absolute symbols

PORTB_GPCHR_OFFSET 00000084

Symbol: PORTB_GPCHR_OFFSET
   Definitions
      At line 1430 in file MKL46Z4.s
   Uses
      At line 1465 in file MKL46Z4.s
Comment: PORTB_GPCHR_OFFSET used once
PORTB_GPCLR 4004A080

Symbol: PORTB_GPCLR
   Definitions
      At line 1464 in file MKL46Z4.s
   Uses
      None
Comment: PORTB_GPCLR unused
PORTB_GPCLR_OFFSET 00000080

Symbol: PORTB_GPCLR_OFFSET
   Definitions
      At line 1429 in file MKL46Z4.s
   Uses
      At line 1464 in file MKL46Z4.s
Comment: PORTB_GPCLR_OFFSET used once
PORTB_ISFR 4004A0A0

Symbol: PORTB_ISFR
   Definitions
      At line 1466 in file MKL46Z4.s
   Uses
      None
Comment: PORTB_ISFR unused
PORTB_ISFR_OFFSET 000000A0

Symbol: PORTB_ISFR_OFFSET
   Definitions
      At line 1431 in file MKL46Z4.s
   Uses
      At line 1466 in file MKL46Z4.s
Comment: PORTB_ISFR_OFFSET used once
PORTB_PCR0 4004A000

Symbol: PORTB_PCR0
   Definitions
      At line 1432 in file MKL46Z4.s
   Uses
      None
Comment: PORTB_PCR0 unused
PORTB_PCR0_OFFSET 00000000

Symbol: PORTB_PCR0_OFFSET
   Definitions
      At line 1397 in file MKL46Z4.s
   Uses
      At line 1432 in file MKL46Z4.s
Comment: PORTB_PCR0_OFFSET used once
PORTB_PCR1 4004A004

Symbol: PORTB_PCR1



ARM Macro Assembler    Page 96 Alphabetic symbol ordering
Absolute symbols

   Definitions
      At line 1433 in file MKL46Z4.s
   Uses
      None
Comment: PORTB_PCR1 unused
PORTB_PCR10 4004A028

Symbol: PORTB_PCR10
   Definitions
      At line 1442 in file MKL46Z4.s
   Uses
      None
Comment: PORTB_PCR10 unused
PORTB_PCR10_OFFSET 00000028

Symbol: PORTB_PCR10_OFFSET
   Definitions
      At line 1407 in file MKL46Z4.s
   Uses
      At line 1442 in file MKL46Z4.s
Comment: PORTB_PCR10_OFFSET used once
PORTB_PCR11 4004A02C

Symbol: PORTB_PCR11
   Definitions
      At line 1443 in file MKL46Z4.s
   Uses
      None
Comment: PORTB_PCR11 unused
PORTB_PCR11_OFFSET 0000002C

Symbol: PORTB_PCR11_OFFSET
   Definitions
      At line 1408 in file MKL46Z4.s
   Uses
      At line 1443 in file MKL46Z4.s
Comment: PORTB_PCR11_OFFSET used once
PORTB_PCR12 4004A030

Symbol: PORTB_PCR12
   Definitions
      At line 1444 in file MKL46Z4.s
   Uses
      None
Comment: PORTB_PCR12 unused
PORTB_PCR12_OFFSET 00000030

Symbol: PORTB_PCR12_OFFSET
   Definitions
      At line 1409 in file MKL46Z4.s
   Uses
      At line 1444 in file MKL46Z4.s
Comment: PORTB_PCR12_OFFSET used once
PORTB_PCR13 4004A034

Symbol: PORTB_PCR13
   Definitions
      At line 1445 in file MKL46Z4.s
   Uses



ARM Macro Assembler    Page 97 Alphabetic symbol ordering
Absolute symbols

      None
Comment: PORTB_PCR13 unused
PORTB_PCR13_OFFSET 00000034

Symbol: PORTB_PCR13_OFFSET
   Definitions
      At line 1410 in file MKL46Z4.s
   Uses
      At line 1445 in file MKL46Z4.s
Comment: PORTB_PCR13_OFFSET used once
PORTB_PCR14 4004A038

Symbol: PORTB_PCR14
   Definitions
      At line 1446 in file MKL46Z4.s
   Uses
      None
Comment: PORTB_PCR14 unused
PORTB_PCR14_OFFSET 00000038

Symbol: PORTB_PCR14_OFFSET
   Definitions
      At line 1411 in file MKL46Z4.s
   Uses
      At line 1446 in file MKL46Z4.s
Comment: PORTB_PCR14_OFFSET used once
PORTB_PCR15 4004A03C

Symbol: PORTB_PCR15
   Definitions
      At line 1447 in file MKL46Z4.s
   Uses
      None
Comment: PORTB_PCR15 unused
PORTB_PCR15_OFFSET 0000003C

Symbol: PORTB_PCR15_OFFSET
   Definitions
      At line 1412 in file MKL46Z4.s
   Uses
      At line 1447 in file MKL46Z4.s
Comment: PORTB_PCR15_OFFSET used once
PORTB_PCR16 4004A040

Symbol: PORTB_PCR16
   Definitions
      At line 1448 in file MKL46Z4.s
   Uses
      None
Comment: PORTB_PCR16 unused
PORTB_PCR16_OFFSET 00000040

Symbol: PORTB_PCR16_OFFSET
   Definitions
      At line 1413 in file MKL46Z4.s
   Uses
      At line 1448 in file MKL46Z4.s
Comment: PORTB_PCR16_OFFSET used once
PORTB_PCR17 4004A044



ARM Macro Assembler    Page 98 Alphabetic symbol ordering
Absolute symbols


Symbol: PORTB_PCR17
   Definitions
      At line 1449 in file MKL46Z4.s
   Uses
      None
Comment: PORTB_PCR17 unused
PORTB_PCR17_OFFSET 00000044

Symbol: PORTB_PCR17_OFFSET
   Definitions
      At line 1414 in file MKL46Z4.s
   Uses
      At line 1449 in file MKL46Z4.s
Comment: PORTB_PCR17_OFFSET used once
PORTB_PCR18 4004A048

Symbol: PORTB_PCR18
   Definitions
      At line 1450 in file MKL46Z4.s
   Uses
      None
Comment: PORTB_PCR18 unused
PORTB_PCR18_OFFSET 00000048

Symbol: PORTB_PCR18_OFFSET
   Definitions
      At line 1415 in file MKL46Z4.s
   Uses
      At line 1450 in file MKL46Z4.s
Comment: PORTB_PCR18_OFFSET used once
PORTB_PCR19 4004A04C

Symbol: PORTB_PCR19
   Definitions
      At line 1451 in file MKL46Z4.s
   Uses
      None
Comment: PORTB_PCR19 unused
PORTB_PCR19_OFFSET 0000004C

Symbol: PORTB_PCR19_OFFSET
   Definitions
      At line 1416 in file MKL46Z4.s
   Uses
      At line 1451 in file MKL46Z4.s
Comment: PORTB_PCR19_OFFSET used once
PORTB_PCR1_OFFSET 00000004

Symbol: PORTB_PCR1_OFFSET
   Definitions
      At line 1398 in file MKL46Z4.s
   Uses
      At line 1433 in file MKL46Z4.s
Comment: PORTB_PCR1_OFFSET used once
PORTB_PCR2 4004A008

Symbol: PORTB_PCR2
   Definitions



ARM Macro Assembler    Page 99 Alphabetic symbol ordering
Absolute symbols

      At line 1434 in file MKL46Z4.s
   Uses
      None
Comment: PORTB_PCR2 unused
PORTB_PCR20 4004A050

Symbol: PORTB_PCR20
   Definitions
      At line 1452 in file MKL46Z4.s
   Uses
      None
Comment: PORTB_PCR20 unused
PORTB_PCR20_OFFSET 00000050

Symbol: PORTB_PCR20_OFFSET
   Definitions
      At line 1417 in file MKL46Z4.s
   Uses
      At line 1452 in file MKL46Z4.s
Comment: PORTB_PCR20_OFFSET used once
PORTB_PCR21 4004A054

Symbol: PORTB_PCR21
   Definitions
      At line 1453 in file MKL46Z4.s
   Uses
      None
Comment: PORTB_PCR21 unused
PORTB_PCR21_OFFSET 00000054

Symbol: PORTB_PCR21_OFFSET
   Definitions
      At line 1418 in file MKL46Z4.s
   Uses
      At line 1453 in file MKL46Z4.s
Comment: PORTB_PCR21_OFFSET used once
PORTB_PCR22 4004A058

Symbol: PORTB_PCR22
   Definitions
      At line 1454 in file MKL46Z4.s
   Uses
      None
Comment: PORTB_PCR22 unused
PORTB_PCR22_OFFSET 00000058

Symbol: PORTB_PCR22_OFFSET
   Definitions
      At line 1419 in file MKL46Z4.s
   Uses
      At line 1454 in file MKL46Z4.s
Comment: PORTB_PCR22_OFFSET used once
PORTB_PCR23 4004A05C

Symbol: PORTB_PCR23
   Definitions
      At line 1455 in file MKL46Z4.s
   Uses
      None



ARM Macro Assembler    Page 100 Alphabetic symbol ordering
Absolute symbols

Comment: PORTB_PCR23 unused
PORTB_PCR23_OFFSET 0000005C

Symbol: PORTB_PCR23_OFFSET
   Definitions
      At line 1420 in file MKL46Z4.s
   Uses
      At line 1455 in file MKL46Z4.s
Comment: PORTB_PCR23_OFFSET used once
PORTB_PCR24 4004A060

Symbol: PORTB_PCR24
   Definitions
      At line 1456 in file MKL46Z4.s
   Uses
      None
Comment: PORTB_PCR24 unused
PORTB_PCR24_OFFSET 00000060

Symbol: PORTB_PCR24_OFFSET
   Definitions
      At line 1421 in file MKL46Z4.s
   Uses
      At line 1456 in file MKL46Z4.s
Comment: PORTB_PCR24_OFFSET used once
PORTB_PCR25 4004A064

Symbol: PORTB_PCR25
   Definitions
      At line 1457 in file MKL46Z4.s
   Uses
      None
Comment: PORTB_PCR25 unused
PORTB_PCR25_OFFSET 00000064

Symbol: PORTB_PCR25_OFFSET
   Definitions
      At line 1422 in file MKL46Z4.s
   Uses
      At line 1457 in file MKL46Z4.s
Comment: PORTB_PCR25_OFFSET used once
PORTB_PCR26 4004A068

Symbol: PORTB_PCR26
   Definitions
      At line 1458 in file MKL46Z4.s
   Uses
      None
Comment: PORTB_PCR26 unused
PORTB_PCR26_OFFSET 00000068

Symbol: PORTB_PCR26_OFFSET
   Definitions
      At line 1423 in file MKL46Z4.s
   Uses
      At line 1458 in file MKL46Z4.s
Comment: PORTB_PCR26_OFFSET used once
PORTB_PCR27 4004A06C




ARM Macro Assembler    Page 101 Alphabetic symbol ordering
Absolute symbols

Symbol: PORTB_PCR27
   Definitions
      At line 1459 in file MKL46Z4.s
   Uses
      None
Comment: PORTB_PCR27 unused
PORTB_PCR27_OFFSET 0000006C

Symbol: PORTB_PCR27_OFFSET
   Definitions
      At line 1424 in file MKL46Z4.s
   Uses
      At line 1459 in file MKL46Z4.s
Comment: PORTB_PCR27_OFFSET used once
PORTB_PCR28 4004A070

Symbol: PORTB_PCR28
   Definitions
      At line 1460 in file MKL46Z4.s
   Uses
      None
Comment: PORTB_PCR28 unused
PORTB_PCR28_OFFSET 00000070

Symbol: PORTB_PCR28_OFFSET
   Definitions
      At line 1425 in file MKL46Z4.s
   Uses
      At line 1460 in file MKL46Z4.s
Comment: PORTB_PCR28_OFFSET used once
PORTB_PCR29 4004A074

Symbol: PORTB_PCR29
   Definitions
      At line 1461 in file MKL46Z4.s
   Uses
      None
Comment: PORTB_PCR29 unused
PORTB_PCR29_OFFSET 00000074

Symbol: PORTB_PCR29_OFFSET
   Definitions
      At line 1426 in file MKL46Z4.s
   Uses
      At line 1461 in file MKL46Z4.s
Comment: PORTB_PCR29_OFFSET used once
PORTB_PCR2_OFFSET 00000008

Symbol: PORTB_PCR2_OFFSET
   Definitions
      At line 1399 in file MKL46Z4.s
   Uses
      At line 1434 in file MKL46Z4.s
Comment: PORTB_PCR2_OFFSET used once
PORTB_PCR3 4004A00C

Symbol: PORTB_PCR3
   Definitions
      At line 1435 in file MKL46Z4.s



ARM Macro Assembler    Page 102 Alphabetic symbol ordering
Absolute symbols

   Uses
      None
Comment: PORTB_PCR3 unused
PORTB_PCR30 4004A078

Symbol: PORTB_PCR30
   Definitions
      At line 1462 in file MKL46Z4.s
   Uses
      None
Comment: PORTB_PCR30 unused
PORTB_PCR30_OFFSET 00000078

Symbol: PORTB_PCR30_OFFSET
   Definitions
      At line 1427 in file MKL46Z4.s
   Uses
      At line 1462 in file MKL46Z4.s
Comment: PORTB_PCR30_OFFSET used once
PORTB_PCR31 4004A07C

Symbol: PORTB_PCR31
   Definitions
      At line 1463 in file MKL46Z4.s
   Uses
      None
Comment: PORTB_PCR31 unused
PORTB_PCR31_OFFSET 0000007C

Symbol: PORTB_PCR31_OFFSET
   Definitions
      At line 1428 in file MKL46Z4.s
   Uses
      At line 1463 in file MKL46Z4.s
Comment: PORTB_PCR31_OFFSET used once
PORTB_PCR3_OFFSET 0000000C

Symbol: PORTB_PCR3_OFFSET
   Definitions
      At line 1400 in file MKL46Z4.s
   Uses
      At line 1435 in file MKL46Z4.s
Comment: PORTB_PCR3_OFFSET used once
PORTB_PCR4 4004A010

Symbol: PORTB_PCR4
   Definitions
      At line 1436 in file MKL46Z4.s
   Uses
      None
Comment: PORTB_PCR4 unused
PORTB_PCR4_OFFSET 00000010

Symbol: PORTB_PCR4_OFFSET
   Definitions
      At line 1401 in file MKL46Z4.s
   Uses
      At line 1436 in file MKL46Z4.s
Comment: PORTB_PCR4_OFFSET used once



ARM Macro Assembler    Page 103 Alphabetic symbol ordering
Absolute symbols

PORTB_PCR5 4004A014

Symbol: PORTB_PCR5
   Definitions
      At line 1437 in file MKL46Z4.s
   Uses
      None
Comment: PORTB_PCR5 unused
PORTB_PCR5_OFFSET 00000014

Symbol: PORTB_PCR5_OFFSET
   Definitions
      At line 1402 in file MKL46Z4.s
   Uses
      At line 1437 in file MKL46Z4.s
Comment: PORTB_PCR5_OFFSET used once
PORTB_PCR6 4004A018

Symbol: PORTB_PCR6
   Definitions
      At line 1438 in file MKL46Z4.s
   Uses
      None
Comment: PORTB_PCR6 unused
PORTB_PCR6_OFFSET 00000018

Symbol: PORTB_PCR6_OFFSET
   Definitions
      At line 1403 in file MKL46Z4.s
   Uses
      At line 1438 in file MKL46Z4.s
Comment: PORTB_PCR6_OFFSET used once
PORTB_PCR7 4004A01C

Symbol: PORTB_PCR7
   Definitions
      At line 1439 in file MKL46Z4.s
   Uses
      None
Comment: PORTB_PCR7 unused
PORTB_PCR7_OFFSET 0000001C

Symbol: PORTB_PCR7_OFFSET
   Definitions
      At line 1404 in file MKL46Z4.s
   Uses
      At line 1439 in file MKL46Z4.s
Comment: PORTB_PCR7_OFFSET used once
PORTB_PCR8 4004A020

Symbol: PORTB_PCR8
   Definitions
      At line 1440 in file MKL46Z4.s
   Uses
      None
Comment: PORTB_PCR8 unused
PORTB_PCR8_OFFSET 00000020

Symbol: PORTB_PCR8_OFFSET



ARM Macro Assembler    Page 104 Alphabetic symbol ordering
Absolute symbols

   Definitions
      At line 1405 in file MKL46Z4.s
   Uses
      At line 1440 in file MKL46Z4.s
Comment: PORTB_PCR8_OFFSET used once
PORTB_PCR9 4004A024

Symbol: PORTB_PCR9
   Definitions
      At line 1441 in file MKL46Z4.s
   Uses
      None
Comment: PORTB_PCR9 unused
PORTB_PCR9_OFFSET 00000024

Symbol: PORTB_PCR9_OFFSET
   Definitions
      At line 1406 in file MKL46Z4.s
   Uses
      At line 1441 in file MKL46Z4.s
Comment: PORTB_PCR9_OFFSET used once
PORTC_BASE 4004B000

Symbol: PORTC_BASE
   Definitions
      At line 1469 in file MKL46Z4.s
   Uses
      At line 1505 in file MKL46Z4.s
      At line 1506 in file MKL46Z4.s
      At line 1507 in file MKL46Z4.s
      At line 1508 in file MKL46Z4.s
      At line 1509 in file MKL46Z4.s
      At line 1510 in file MKL46Z4.s
      At line 1511 in file MKL46Z4.s
      At line 1512 in file MKL46Z4.s
      At line 1513 in file MKL46Z4.s
      At line 1514 in file MKL46Z4.s
      At line 1515 in file MKL46Z4.s
      At line 1516 in file MKL46Z4.s
      At line 1517 in file MKL46Z4.s
      At line 1518 in file MKL46Z4.s
      At line 1519 in file MKL46Z4.s
      At line 1520 in file MKL46Z4.s
      At line 1521 in file MKL46Z4.s
      At line 1522 in file MKL46Z4.s
      At line 1523 in file MKL46Z4.s
      At line 1524 in file MKL46Z4.s
      At line 1525 in file MKL46Z4.s
      At line 1526 in file MKL46Z4.s
      At line 1527 in file MKL46Z4.s
      At line 1528 in file MKL46Z4.s
      At line 1529 in file MKL46Z4.s
      At line 1530 in file MKL46Z4.s
      At line 1531 in file MKL46Z4.s
      At line 1532 in file MKL46Z4.s
      At line 1533 in file MKL46Z4.s
      At line 1534 in file MKL46Z4.s
      At line 1535 in file MKL46Z4.s
      At line 1536 in file MKL46Z4.s



ARM Macro Assembler    Page 105 Alphabetic symbol ordering
Absolute symbols

      At line 1537 in file MKL46Z4.s
      At line 1538 in file MKL46Z4.s
      At line 1539 in file MKL46Z4.s

PORTC_GPCHR 4004B084

Symbol: PORTC_GPCHR
   Definitions
      At line 1538 in file MKL46Z4.s
   Uses
      None
Comment: PORTC_GPCHR unused
PORTC_GPCHR_OFFSET 00000084

Symbol: PORTC_GPCHR_OFFSET
   Definitions
      At line 1503 in file MKL46Z4.s
   Uses
      At line 1538 in file MKL46Z4.s
Comment: PORTC_GPCHR_OFFSET used once
PORTC_GPCLR 4004B080

Symbol: PORTC_GPCLR
   Definitions
      At line 1537 in file MKL46Z4.s
   Uses
      None
Comment: PORTC_GPCLR unused
PORTC_GPCLR_OFFSET 00000080

Symbol: PORTC_GPCLR_OFFSET
   Definitions
      At line 1502 in file MKL46Z4.s
   Uses
      At line 1537 in file MKL46Z4.s
Comment: PORTC_GPCLR_OFFSET used once
PORTC_ISFR 4004B0A0

Symbol: PORTC_ISFR
   Definitions
      At line 1539 in file MKL46Z4.s
   Uses
      None
Comment: PORTC_ISFR unused
PORTC_ISFR_OFFSET 000000A0

Symbol: PORTC_ISFR_OFFSET
   Definitions
      At line 1504 in file MKL46Z4.s
   Uses
      At line 1539 in file MKL46Z4.s
Comment: PORTC_ISFR_OFFSET used once
PORTC_PCR0 4004B000

Symbol: PORTC_PCR0
   Definitions
      At line 1505 in file MKL46Z4.s
   Uses
      None



ARM Macro Assembler    Page 106 Alphabetic symbol ordering
Absolute symbols

Comment: PORTC_PCR0 unused
PORTC_PCR0_OFFSET 00000000

Symbol: PORTC_PCR0_OFFSET
   Definitions
      At line 1470 in file MKL46Z4.s
   Uses
      At line 1505 in file MKL46Z4.s
Comment: PORTC_PCR0_OFFSET used once
PORTC_PCR1 4004B004

Symbol: PORTC_PCR1
   Definitions
      At line 1506 in file MKL46Z4.s
   Uses
      None
Comment: PORTC_PCR1 unused
PORTC_PCR10 4004B028

Symbol: PORTC_PCR10
   Definitions
      At line 1515 in file MKL46Z4.s
   Uses
      None
Comment: PORTC_PCR10 unused
PORTC_PCR10_OFFSET 00000028

Symbol: PORTC_PCR10_OFFSET
   Definitions
      At line 1480 in file MKL46Z4.s
   Uses
      At line 1515 in file MKL46Z4.s
Comment: PORTC_PCR10_OFFSET used once
PORTC_PCR11 4004B02C

Symbol: PORTC_PCR11
   Definitions
      At line 1516 in file MKL46Z4.s
   Uses
      None
Comment: PORTC_PCR11 unused
PORTC_PCR11_OFFSET 0000002C

Symbol: PORTC_PCR11_OFFSET
   Definitions
      At line 1481 in file MKL46Z4.s
   Uses
      At line 1516 in file MKL46Z4.s
Comment: PORTC_PCR11_OFFSET used once
PORTC_PCR12 4004B030

Symbol: PORTC_PCR12
   Definitions
      At line 1517 in file MKL46Z4.s
   Uses
      None
Comment: PORTC_PCR12 unused
PORTC_PCR12_OFFSET 00000030




ARM Macro Assembler    Page 107 Alphabetic symbol ordering
Absolute symbols

Symbol: PORTC_PCR12_OFFSET
   Definitions
      At line 1482 in file MKL46Z4.s
   Uses
      At line 1517 in file MKL46Z4.s
Comment: PORTC_PCR12_OFFSET used once
PORTC_PCR13 4004B034

Symbol: PORTC_PCR13
   Definitions
      At line 1518 in file MKL46Z4.s
   Uses
      None
Comment: PORTC_PCR13 unused
PORTC_PCR13_OFFSET 00000034

Symbol: PORTC_PCR13_OFFSET
   Definitions
      At line 1483 in file MKL46Z4.s
   Uses
      At line 1518 in file MKL46Z4.s
Comment: PORTC_PCR13_OFFSET used once
PORTC_PCR14 4004B038

Symbol: PORTC_PCR14
   Definitions
      At line 1519 in file MKL46Z4.s
   Uses
      None
Comment: PORTC_PCR14 unused
PORTC_PCR14_OFFSET 00000038

Symbol: PORTC_PCR14_OFFSET
   Definitions
      At line 1484 in file MKL46Z4.s
   Uses
      At line 1519 in file MKL46Z4.s
Comment: PORTC_PCR14_OFFSET used once
PORTC_PCR15 4004B03C

Symbol: PORTC_PCR15
   Definitions
      At line 1520 in file MKL46Z4.s
   Uses
      None
Comment: PORTC_PCR15 unused
PORTC_PCR15_OFFSET 0000003C

Symbol: PORTC_PCR15_OFFSET
   Definitions
      At line 1485 in file MKL46Z4.s
   Uses
      At line 1520 in file MKL46Z4.s
Comment: PORTC_PCR15_OFFSET used once
PORTC_PCR16 4004B040

Symbol: PORTC_PCR16
   Definitions
      At line 1521 in file MKL46Z4.s



ARM Macro Assembler    Page 108 Alphabetic symbol ordering
Absolute symbols

   Uses
      None
Comment: PORTC_PCR16 unused
PORTC_PCR16_OFFSET 00000040

Symbol: PORTC_PCR16_OFFSET
   Definitions
      At line 1486 in file MKL46Z4.s
   Uses
      At line 1521 in file MKL46Z4.s
Comment: PORTC_PCR16_OFFSET used once
PORTC_PCR17 4004B044

Symbol: PORTC_PCR17
   Definitions
      At line 1522 in file MKL46Z4.s
   Uses
      None
Comment: PORTC_PCR17 unused
PORTC_PCR17_OFFSET 00000044

Symbol: PORTC_PCR17_OFFSET
   Definitions
      At line 1487 in file MKL46Z4.s
   Uses
      At line 1522 in file MKL46Z4.s
Comment: PORTC_PCR17_OFFSET used once
PORTC_PCR18 4004B048

Symbol: PORTC_PCR18
   Definitions
      At line 1523 in file MKL46Z4.s
   Uses
      None
Comment: PORTC_PCR18 unused
PORTC_PCR18_OFFSET 00000048

Symbol: PORTC_PCR18_OFFSET
   Definitions
      At line 1488 in file MKL46Z4.s
   Uses
      At line 1523 in file MKL46Z4.s
Comment: PORTC_PCR18_OFFSET used once
PORTC_PCR19 4004B04C

Symbol: PORTC_PCR19
   Definitions
      At line 1524 in file MKL46Z4.s
   Uses
      None
Comment: PORTC_PCR19 unused
PORTC_PCR19_OFFSET 0000004C

Symbol: PORTC_PCR19_OFFSET
   Definitions
      At line 1489 in file MKL46Z4.s
   Uses
      At line 1524 in file MKL46Z4.s
Comment: PORTC_PCR19_OFFSET used once



ARM Macro Assembler    Page 109 Alphabetic symbol ordering
Absolute symbols

PORTC_PCR1_OFFSET 00000004

Symbol: PORTC_PCR1_OFFSET
   Definitions
      At line 1471 in file MKL46Z4.s
   Uses
      At line 1506 in file MKL46Z4.s
Comment: PORTC_PCR1_OFFSET used once
PORTC_PCR2 4004B008

Symbol: PORTC_PCR2
   Definitions
      At line 1507 in file MKL46Z4.s
   Uses
      None
Comment: PORTC_PCR2 unused
PORTC_PCR20 4004B050

Symbol: PORTC_PCR20
   Definitions
      At line 1525 in file MKL46Z4.s
   Uses
      None
Comment: PORTC_PCR20 unused
PORTC_PCR20_OFFSET 00000050

Symbol: PORTC_PCR20_OFFSET
   Definitions
      At line 1490 in file MKL46Z4.s
   Uses
      At line 1525 in file MKL46Z4.s
Comment: PORTC_PCR20_OFFSET used once
PORTC_PCR21 4004B054

Symbol: PORTC_PCR21
   Definitions
      At line 1526 in file MKL46Z4.s
   Uses
      None
Comment: PORTC_PCR21 unused
PORTC_PCR21_OFFSET 00000054

Symbol: PORTC_PCR21_OFFSET
   Definitions
      At line 1491 in file MKL46Z4.s
   Uses
      At line 1526 in file MKL46Z4.s
Comment: PORTC_PCR21_OFFSET used once
PORTC_PCR22 4004B058

Symbol: PORTC_PCR22
   Definitions
      At line 1527 in file MKL46Z4.s
   Uses
      None
Comment: PORTC_PCR22 unused
PORTC_PCR22_OFFSET 00000058

Symbol: PORTC_PCR22_OFFSET



ARM Macro Assembler    Page 110 Alphabetic symbol ordering
Absolute symbols

   Definitions
      At line 1492 in file MKL46Z4.s
   Uses
      At line 1527 in file MKL46Z4.s
Comment: PORTC_PCR22_OFFSET used once
PORTC_PCR23 4004B05C

Symbol: PORTC_PCR23
   Definitions
      At line 1528 in file MKL46Z4.s
   Uses
      None
Comment: PORTC_PCR23 unused
PORTC_PCR23_OFFSET 0000005C

Symbol: PORTC_PCR23_OFFSET
   Definitions
      At line 1493 in file MKL46Z4.s
   Uses
      At line 1528 in file MKL46Z4.s
Comment: PORTC_PCR23_OFFSET used once
PORTC_PCR24 4004B060

Symbol: PORTC_PCR24
   Definitions
      At line 1529 in file MKL46Z4.s
   Uses
      None
Comment: PORTC_PCR24 unused
PORTC_PCR24_OFFSET 00000060

Symbol: PORTC_PCR24_OFFSET
   Definitions
      At line 1494 in file MKL46Z4.s
   Uses
      At line 1529 in file MKL46Z4.s
Comment: PORTC_PCR24_OFFSET used once
PORTC_PCR25 4004B064

Symbol: PORTC_PCR25
   Definitions
      At line 1530 in file MKL46Z4.s
   Uses
      None
Comment: PORTC_PCR25 unused
PORTC_PCR25_OFFSET 00000064

Symbol: PORTC_PCR25_OFFSET
   Definitions
      At line 1495 in file MKL46Z4.s
   Uses
      At line 1530 in file MKL46Z4.s
Comment: PORTC_PCR25_OFFSET used once
PORTC_PCR26 4004B068

Symbol: PORTC_PCR26
   Definitions
      At line 1531 in file MKL46Z4.s
   Uses



ARM Macro Assembler    Page 111 Alphabetic symbol ordering
Absolute symbols

      None
Comment: PORTC_PCR26 unused
PORTC_PCR26_OFFSET 00000068

Symbol: PORTC_PCR26_OFFSET
   Definitions
      At line 1496 in file MKL46Z4.s
   Uses
      At line 1531 in file MKL46Z4.s
Comment: PORTC_PCR26_OFFSET used once
PORTC_PCR27 4004B06C

Symbol: PORTC_PCR27
   Definitions
      At line 1532 in file MKL46Z4.s
   Uses
      None
Comment: PORTC_PCR27 unused
PORTC_PCR27_OFFSET 0000006C

Symbol: PORTC_PCR27_OFFSET
   Definitions
      At line 1497 in file MKL46Z4.s
   Uses
      At line 1532 in file MKL46Z4.s
Comment: PORTC_PCR27_OFFSET used once
PORTC_PCR28 4004B070

Symbol: PORTC_PCR28
   Definitions
      At line 1533 in file MKL46Z4.s
   Uses
      None
Comment: PORTC_PCR28 unused
PORTC_PCR28_OFFSET 00000070

Symbol: PORTC_PCR28_OFFSET
   Definitions
      At line 1498 in file MKL46Z4.s
   Uses
      At line 1533 in file MKL46Z4.s
Comment: PORTC_PCR28_OFFSET used once
PORTC_PCR29 4004B074

Symbol: PORTC_PCR29
   Definitions
      At line 1534 in file MKL46Z4.s
   Uses
      None
Comment: PORTC_PCR29 unused
PORTC_PCR29_OFFSET 00000074

Symbol: PORTC_PCR29_OFFSET
   Definitions
      At line 1499 in file MKL46Z4.s
   Uses
      At line 1534 in file MKL46Z4.s
Comment: PORTC_PCR29_OFFSET used once
PORTC_PCR2_OFFSET 00000008



ARM Macro Assembler    Page 112 Alphabetic symbol ordering
Absolute symbols


Symbol: PORTC_PCR2_OFFSET
   Definitions
      At line 1472 in file MKL46Z4.s
   Uses
      At line 1507 in file MKL46Z4.s
Comment: PORTC_PCR2_OFFSET used once
PORTC_PCR3 4004B00C

Symbol: PORTC_PCR3
   Definitions
      At line 1508 in file MKL46Z4.s
   Uses
      None
Comment: PORTC_PCR3 unused
PORTC_PCR30 4004B078

Symbol: PORTC_PCR30
   Definitions
      At line 1535 in file MKL46Z4.s
   Uses
      None
Comment: PORTC_PCR30 unused
PORTC_PCR30_OFFSET 00000078

Symbol: PORTC_PCR30_OFFSET
   Definitions
      At line 1500 in file MKL46Z4.s
   Uses
      At line 1535 in file MKL46Z4.s
Comment: PORTC_PCR30_OFFSET used once
PORTC_PCR31 4004B07C

Symbol: PORTC_PCR31
   Definitions
      At line 1536 in file MKL46Z4.s
   Uses
      None
Comment: PORTC_PCR31 unused
PORTC_PCR31_OFFSET 0000007C

Symbol: PORTC_PCR31_OFFSET
   Definitions
      At line 1501 in file MKL46Z4.s
   Uses
      At line 1536 in file MKL46Z4.s
Comment: PORTC_PCR31_OFFSET used once
PORTC_PCR3_OFFSET 0000000C

Symbol: PORTC_PCR3_OFFSET
   Definitions
      At line 1473 in file MKL46Z4.s
   Uses
      At line 1508 in file MKL46Z4.s
Comment: PORTC_PCR3_OFFSET used once
PORTC_PCR4 4004B010

Symbol: PORTC_PCR4
   Definitions



ARM Macro Assembler    Page 113 Alphabetic symbol ordering
Absolute symbols

      At line 1509 in file MKL46Z4.s
   Uses
      None
Comment: PORTC_PCR4 unused
PORTC_PCR4_OFFSET 00000010

Symbol: PORTC_PCR4_OFFSET
   Definitions
      At line 1474 in file MKL46Z4.s
   Uses
      At line 1509 in file MKL46Z4.s
Comment: PORTC_PCR4_OFFSET used once
PORTC_PCR5 4004B014

Symbol: PORTC_PCR5
   Definitions
      At line 1510 in file MKL46Z4.s
   Uses
      None
Comment: PORTC_PCR5 unused
PORTC_PCR5_OFFSET 00000014

Symbol: PORTC_PCR5_OFFSET
   Definitions
      At line 1475 in file MKL46Z4.s
   Uses
      At line 1510 in file MKL46Z4.s
Comment: PORTC_PCR5_OFFSET used once
PORTC_PCR6 4004B018

Symbol: PORTC_PCR6
   Definitions
      At line 1511 in file MKL46Z4.s
   Uses
      None
Comment: PORTC_PCR6 unused
PORTC_PCR6_OFFSET 00000018

Symbol: PORTC_PCR6_OFFSET
   Definitions
      At line 1476 in file MKL46Z4.s
   Uses
      At line 1511 in file MKL46Z4.s
Comment: PORTC_PCR6_OFFSET used once
PORTC_PCR7 4004B01C

Symbol: PORTC_PCR7
   Definitions
      At line 1512 in file MKL46Z4.s
   Uses
      None
Comment: PORTC_PCR7 unused
PORTC_PCR7_OFFSET 0000001C

Symbol: PORTC_PCR7_OFFSET
   Definitions
      At line 1477 in file MKL46Z4.s
   Uses
      At line 1512 in file MKL46Z4.s



ARM Macro Assembler    Page 114 Alphabetic symbol ordering
Absolute symbols

Comment: PORTC_PCR7_OFFSET used once
PORTC_PCR8 4004B020

Symbol: PORTC_PCR8
   Definitions
      At line 1513 in file MKL46Z4.s
   Uses
      None
Comment: PORTC_PCR8 unused
PORTC_PCR8_OFFSET 00000020

Symbol: PORTC_PCR8_OFFSET
   Definitions
      At line 1478 in file MKL46Z4.s
   Uses
      At line 1513 in file MKL46Z4.s
Comment: PORTC_PCR8_OFFSET used once
PORTC_PCR9 4004B024

Symbol: PORTC_PCR9
   Definitions
      At line 1514 in file MKL46Z4.s
   Uses
      None
Comment: PORTC_PCR9 unused
PORTC_PCR9_OFFSET 00000024

Symbol: PORTC_PCR9_OFFSET
   Definitions
      At line 1479 in file MKL46Z4.s
   Uses
      At line 1514 in file MKL46Z4.s
Comment: PORTC_PCR9_OFFSET used once
PORTC_PORTD_IPR E000E41C

Symbol: PORTC_PORTD_IPR
   Definitions
      At line 1020 in file MKL46Z4.s
   Uses
      None
Comment: PORTC_PORTD_IPR unused
PORTC_PORTD_IRQ 0000001F

Symbol: PORTC_PORTD_IRQ
   Definitions
      At line 1090 in file MKL46Z4.s
   Uses
      At line 1124 in file MKL46Z4.s
Comment: PORTC_PORTD_IRQ used once
PORTC_PORTD_IRQ_MASK 80000000

Symbol: PORTC_PORTD_IRQ_MASK
   Definitions
      At line 1124 in file MKL46Z4.s
   Uses
      None
Comment: PORTC_PORTD_IRQ_MASK unused
PORTC_PORTD_PRI_POS 0000001E




ARM Macro Assembler    Page 115 Alphabetic symbol ordering
Absolute symbols

Symbol: PORTC_PORTD_PRI_POS
   Definitions
      At line 1056 in file MKL46Z4.s
   Uses
      None
Comment: PORTC_PORTD_PRI_POS unused
PORTD_BASE 4004C000

Symbol: PORTD_BASE
   Definitions
      At line 1542 in file MKL46Z4.s
   Uses
      At line 1578 in file MKL46Z4.s
      At line 1579 in file MKL46Z4.s
      At line 1580 in file MKL46Z4.s
      At line 1581 in file MKL46Z4.s
      At line 1582 in file MKL46Z4.s
      At line 1583 in file MKL46Z4.s
      At line 1584 in file MKL46Z4.s
      At line 1585 in file MKL46Z4.s
      At line 1586 in file MKL46Z4.s
      At line 1587 in file MKL46Z4.s
      At line 1588 in file MKL46Z4.s
      At line 1589 in file MKL46Z4.s
      At line 1590 in file MKL46Z4.s
      At line 1591 in file MKL46Z4.s
      At line 1592 in file MKL46Z4.s
      At line 1593 in file MKL46Z4.s
      At line 1594 in file MKL46Z4.s
      At line 1595 in file MKL46Z4.s
      At line 1596 in file MKL46Z4.s
      At line 1597 in file MKL46Z4.s
      At line 1598 in file MKL46Z4.s
      At line 1599 in file MKL46Z4.s
      At line 1600 in file MKL46Z4.s
      At line 1601 in file MKL46Z4.s
      At line 1602 in file MKL46Z4.s
      At line 1603 in file MKL46Z4.s
      At line 1604 in file MKL46Z4.s
      At line 1605 in file MKL46Z4.s
      At line 1606 in file MKL46Z4.s
      At line 1607 in file MKL46Z4.s
      At line 1608 in file MKL46Z4.s
      At line 1609 in file MKL46Z4.s
      At line 1610 in file MKL46Z4.s
      At line 1611 in file MKL46Z4.s
      At line 1612 in file MKL46Z4.s
      At line 605 in file lab12_ASM.s

PORTD_GPCHR 4004C084

Symbol: PORTD_GPCHR
   Definitions
      At line 1611 in file MKL46Z4.s
   Uses
      None
Comment: PORTD_GPCHR unused
PORTD_GPCHR_OFFSET 00000084




ARM Macro Assembler    Page 116 Alphabetic symbol ordering
Absolute symbols

Symbol: PORTD_GPCHR_OFFSET
   Definitions
      At line 1576 in file MKL46Z4.s
   Uses
      At line 1611 in file MKL46Z4.s
Comment: PORTD_GPCHR_OFFSET used once
PORTD_GPCLR 4004C080

Symbol: PORTD_GPCLR
   Definitions
      At line 1610 in file MKL46Z4.s
   Uses
      None
Comment: PORTD_GPCLR unused
PORTD_GPCLR_OFFSET 00000080

Symbol: PORTD_GPCLR_OFFSET
   Definitions
      At line 1575 in file MKL46Z4.s
   Uses
      At line 1610 in file MKL46Z4.s
Comment: PORTD_GPCLR_OFFSET used once
PORTD_ISFR 4004C0A0

Symbol: PORTD_ISFR
   Definitions
      At line 1612 in file MKL46Z4.s
   Uses
      None
Comment: PORTD_ISFR unused
PORTD_ISFR_OFFSET 000000A0

Symbol: PORTD_ISFR_OFFSET
   Definitions
      At line 1577 in file MKL46Z4.s
   Uses
      At line 1612 in file MKL46Z4.s
Comment: PORTD_ISFR_OFFSET used once
PORTD_PCR0 4004C000

Symbol: PORTD_PCR0
   Definitions
      At line 1578 in file MKL46Z4.s
   Uses
      None
Comment: PORTD_PCR0 unused
PORTD_PCR0_OFFSET 00000000

Symbol: PORTD_PCR0_OFFSET
   Definitions
      At line 1543 in file MKL46Z4.s
   Uses
      At line 1578 in file MKL46Z4.s
Comment: PORTD_PCR0_OFFSET used once
PORTD_PCR1 4004C004

Symbol: PORTD_PCR1
   Definitions
      At line 1579 in file MKL46Z4.s



ARM Macro Assembler    Page 117 Alphabetic symbol ordering
Absolute symbols

   Uses
      None
Comment: PORTD_PCR1 unused
PORTD_PCR10 4004C028

Symbol: PORTD_PCR10
   Definitions
      At line 1588 in file MKL46Z4.s
   Uses
      None
Comment: PORTD_PCR10 unused
PORTD_PCR10_OFFSET 00000028

Symbol: PORTD_PCR10_OFFSET
   Definitions
      At line 1553 in file MKL46Z4.s
   Uses
      At line 1588 in file MKL46Z4.s
Comment: PORTD_PCR10_OFFSET used once
PORTD_PCR11 4004C02C

Symbol: PORTD_PCR11
   Definitions
      At line 1589 in file MKL46Z4.s
   Uses
      None
Comment: PORTD_PCR11 unused
PORTD_PCR11_OFFSET 0000002C

Symbol: PORTD_PCR11_OFFSET
   Definitions
      At line 1554 in file MKL46Z4.s
   Uses
      At line 1589 in file MKL46Z4.s
Comment: PORTD_PCR11_OFFSET used once
PORTD_PCR12 4004C030

Symbol: PORTD_PCR12
   Definitions
      At line 1590 in file MKL46Z4.s
   Uses
      None
Comment: PORTD_PCR12 unused
PORTD_PCR12_OFFSET 00000030

Symbol: PORTD_PCR12_OFFSET
   Definitions
      At line 1555 in file MKL46Z4.s
   Uses
      At line 1590 in file MKL46Z4.s
Comment: PORTD_PCR12_OFFSET used once
PORTD_PCR13 4004C034

Symbol: PORTD_PCR13
   Definitions
      At line 1591 in file MKL46Z4.s
   Uses
      None
Comment: PORTD_PCR13 unused



ARM Macro Assembler    Page 118 Alphabetic symbol ordering
Absolute symbols

PORTD_PCR13_OFFSET 00000034

Symbol: PORTD_PCR13_OFFSET
   Definitions
      At line 1556 in file MKL46Z4.s
   Uses
      At line 1591 in file MKL46Z4.s
Comment: PORTD_PCR13_OFFSET used once
PORTD_PCR14 4004C038

Symbol: PORTD_PCR14
   Definitions
      At line 1592 in file MKL46Z4.s
   Uses
      None
Comment: PORTD_PCR14 unused
PORTD_PCR14_OFFSET 00000038

Symbol: PORTD_PCR14_OFFSET
   Definitions
      At line 1557 in file MKL46Z4.s
   Uses
      At line 1592 in file MKL46Z4.s
Comment: PORTD_PCR14_OFFSET used once
PORTD_PCR15 4004C03C

Symbol: PORTD_PCR15
   Definitions
      At line 1593 in file MKL46Z4.s
   Uses
      None
Comment: PORTD_PCR15 unused
PORTD_PCR15_OFFSET 0000003C

Symbol: PORTD_PCR15_OFFSET
   Definitions
      At line 1558 in file MKL46Z4.s
   Uses
      At line 1593 in file MKL46Z4.s
Comment: PORTD_PCR15_OFFSET used once
PORTD_PCR16 4004C040

Symbol: PORTD_PCR16
   Definitions
      At line 1594 in file MKL46Z4.s
   Uses
      None
Comment: PORTD_PCR16 unused
PORTD_PCR16_OFFSET 00000040

Symbol: PORTD_PCR16_OFFSET
   Definitions
      At line 1559 in file MKL46Z4.s
   Uses
      At line 1594 in file MKL46Z4.s
Comment: PORTD_PCR16_OFFSET used once
PORTD_PCR17 4004C044

Symbol: PORTD_PCR17



ARM Macro Assembler    Page 119 Alphabetic symbol ordering
Absolute symbols

   Definitions
      At line 1595 in file MKL46Z4.s
   Uses
      None
Comment: PORTD_PCR17 unused
PORTD_PCR17_OFFSET 00000044

Symbol: PORTD_PCR17_OFFSET
   Definitions
      At line 1560 in file MKL46Z4.s
   Uses
      At line 1595 in file MKL46Z4.s
Comment: PORTD_PCR17_OFFSET used once
PORTD_PCR18 4004C048

Symbol: PORTD_PCR18
   Definitions
      At line 1596 in file MKL46Z4.s
   Uses
      None
Comment: PORTD_PCR18 unused
PORTD_PCR18_OFFSET 00000048

Symbol: PORTD_PCR18_OFFSET
   Definitions
      At line 1561 in file MKL46Z4.s
   Uses
      At line 1596 in file MKL46Z4.s
Comment: PORTD_PCR18_OFFSET used once
PORTD_PCR19 4004C04C

Symbol: PORTD_PCR19
   Definitions
      At line 1597 in file MKL46Z4.s
   Uses
      None
Comment: PORTD_PCR19 unused
PORTD_PCR19_OFFSET 0000004C

Symbol: PORTD_PCR19_OFFSET
   Definitions
      At line 1562 in file MKL46Z4.s
   Uses
      At line 1597 in file MKL46Z4.s
Comment: PORTD_PCR19_OFFSET used once
PORTD_PCR1_OFFSET 00000004

Symbol: PORTD_PCR1_OFFSET
   Definitions
      At line 1544 in file MKL46Z4.s
   Uses
      At line 1579 in file MKL46Z4.s
Comment: PORTD_PCR1_OFFSET used once
PORTD_PCR2 4004C008

Symbol: PORTD_PCR2
   Definitions
      At line 1580 in file MKL46Z4.s
   Uses



ARM Macro Assembler    Page 120 Alphabetic symbol ordering
Absolute symbols

      None
Comment: PORTD_PCR2 unused
PORTD_PCR20 4004C050

Symbol: PORTD_PCR20
   Definitions
      At line 1598 in file MKL46Z4.s
   Uses
      None
Comment: PORTD_PCR20 unused
PORTD_PCR20_OFFSET 00000050

Symbol: PORTD_PCR20_OFFSET
   Definitions
      At line 1563 in file MKL46Z4.s
   Uses
      At line 1598 in file MKL46Z4.s
Comment: PORTD_PCR20_OFFSET used once
PORTD_PCR21 4004C054

Symbol: PORTD_PCR21
   Definitions
      At line 1599 in file MKL46Z4.s
   Uses
      None
Comment: PORTD_PCR21 unused
PORTD_PCR21_OFFSET 00000054

Symbol: PORTD_PCR21_OFFSET
   Definitions
      At line 1564 in file MKL46Z4.s
   Uses
      At line 1599 in file MKL46Z4.s
Comment: PORTD_PCR21_OFFSET used once
PORTD_PCR22 4004C058

Symbol: PORTD_PCR22
   Definitions
      At line 1600 in file MKL46Z4.s
   Uses
      None
Comment: PORTD_PCR22 unused
PORTD_PCR22_OFFSET 00000058

Symbol: PORTD_PCR22_OFFSET
   Definitions
      At line 1565 in file MKL46Z4.s
   Uses
      At line 1600 in file MKL46Z4.s
Comment: PORTD_PCR22_OFFSET used once
PORTD_PCR23 4004C05C

Symbol: PORTD_PCR23
   Definitions
      At line 1601 in file MKL46Z4.s
   Uses
      None
Comment: PORTD_PCR23 unused
PORTD_PCR23_OFFSET 0000005C



ARM Macro Assembler    Page 121 Alphabetic symbol ordering
Absolute symbols


Symbol: PORTD_PCR23_OFFSET
   Definitions
      At line 1566 in file MKL46Z4.s
   Uses
      At line 1601 in file MKL46Z4.s
Comment: PORTD_PCR23_OFFSET used once
PORTD_PCR24 4004C060

Symbol: PORTD_PCR24
   Definitions
      At line 1602 in file MKL46Z4.s
   Uses
      None
Comment: PORTD_PCR24 unused
PORTD_PCR24_OFFSET 00000060

Symbol: PORTD_PCR24_OFFSET
   Definitions
      At line 1567 in file MKL46Z4.s
   Uses
      At line 1602 in file MKL46Z4.s
Comment: PORTD_PCR24_OFFSET used once
PORTD_PCR25 4004C064

Symbol: PORTD_PCR25
   Definitions
      At line 1603 in file MKL46Z4.s
   Uses
      None
Comment: PORTD_PCR25 unused
PORTD_PCR25_OFFSET 00000064

Symbol: PORTD_PCR25_OFFSET
   Definitions
      At line 1568 in file MKL46Z4.s
   Uses
      At line 1603 in file MKL46Z4.s
Comment: PORTD_PCR25_OFFSET used once
PORTD_PCR26 4004C068

Symbol: PORTD_PCR26
   Definitions
      At line 1604 in file MKL46Z4.s
   Uses
      None
Comment: PORTD_PCR26 unused
PORTD_PCR26_OFFSET 00000068

Symbol: PORTD_PCR26_OFFSET
   Definitions
      At line 1569 in file MKL46Z4.s
   Uses
      At line 1604 in file MKL46Z4.s
Comment: PORTD_PCR26_OFFSET used once
PORTD_PCR27 4004C06C

Symbol: PORTD_PCR27
   Definitions



ARM Macro Assembler    Page 122 Alphabetic symbol ordering
Absolute symbols

      At line 1605 in file MKL46Z4.s
   Uses
      None
Comment: PORTD_PCR27 unused
PORTD_PCR27_OFFSET 0000006C

Symbol: PORTD_PCR27_OFFSET
   Definitions
      At line 1570 in file MKL46Z4.s
   Uses
      At line 1605 in file MKL46Z4.s
Comment: PORTD_PCR27_OFFSET used once
PORTD_PCR28 4004C070

Symbol: PORTD_PCR28
   Definitions
      At line 1606 in file MKL46Z4.s
   Uses
      None
Comment: PORTD_PCR28 unused
PORTD_PCR28_OFFSET 00000070

Symbol: PORTD_PCR28_OFFSET
   Definitions
      At line 1571 in file MKL46Z4.s
   Uses
      At line 1606 in file MKL46Z4.s
Comment: PORTD_PCR28_OFFSET used once
PORTD_PCR29 4004C074

Symbol: PORTD_PCR29
   Definitions
      At line 1607 in file MKL46Z4.s
   Uses
      None
Comment: PORTD_PCR29 unused
PORTD_PCR29_OFFSET 00000074

Symbol: PORTD_PCR29_OFFSET
   Definitions
      At line 1572 in file MKL46Z4.s
   Uses
      At line 1607 in file MKL46Z4.s
Comment: PORTD_PCR29_OFFSET used once
PORTD_PCR2_OFFSET 00000008

Symbol: PORTD_PCR2_OFFSET
   Definitions
      At line 1545 in file MKL46Z4.s
   Uses
      At line 1580 in file MKL46Z4.s
Comment: PORTD_PCR2_OFFSET used once
PORTD_PCR3 4004C00C

Symbol: PORTD_PCR3
   Definitions
      At line 1581 in file MKL46Z4.s
   Uses
      None



ARM Macro Assembler    Page 123 Alphabetic symbol ordering
Absolute symbols

Comment: PORTD_PCR3 unused
PORTD_PCR30 4004C078

Symbol: PORTD_PCR30
   Definitions
      At line 1608 in file MKL46Z4.s
   Uses
      None
Comment: PORTD_PCR30 unused
PORTD_PCR30_OFFSET 00000078

Symbol: PORTD_PCR30_OFFSET
   Definitions
      At line 1573 in file MKL46Z4.s
   Uses
      At line 1608 in file MKL46Z4.s
Comment: PORTD_PCR30_OFFSET used once
PORTD_PCR31 4004C07C

Symbol: PORTD_PCR31
   Definitions
      At line 1609 in file MKL46Z4.s
   Uses
      None
Comment: PORTD_PCR31 unused
PORTD_PCR31_OFFSET 0000007C

Symbol: PORTD_PCR31_OFFSET
   Definitions
      At line 1574 in file MKL46Z4.s
   Uses
      At line 1609 in file MKL46Z4.s
Comment: PORTD_PCR31_OFFSET used once
PORTD_PCR3_OFFSET 0000000C

Symbol: PORTD_PCR3_OFFSET
   Definitions
      At line 1546 in file MKL46Z4.s
   Uses
      At line 1581 in file MKL46Z4.s
Comment: PORTD_PCR3_OFFSET used once
PORTD_PCR4 4004C010

Symbol: PORTD_PCR4
   Definitions
      At line 1582 in file MKL46Z4.s
   Uses
      None
Comment: PORTD_PCR4 unused
PORTD_PCR4_OFFSET 00000010

Symbol: PORTD_PCR4_OFFSET
   Definitions
      At line 1547 in file MKL46Z4.s
   Uses
      At line 1582 in file MKL46Z4.s
Comment: PORTD_PCR4_OFFSET used once
PORTD_PCR5 4004C014




ARM Macro Assembler    Page 124 Alphabetic symbol ordering
Absolute symbols

Symbol: PORTD_PCR5
   Definitions
      At line 1583 in file MKL46Z4.s
   Uses
      None
Comment: PORTD_PCR5 unused
PORTD_PCR5_OFFSET 00000014

Symbol: PORTD_PCR5_OFFSET
   Definitions
      At line 1548 in file MKL46Z4.s
   Uses
      At line 1583 in file MKL46Z4.s
      At line 607 in file lab12_ASM.s

PORTD_PCR6 4004C018

Symbol: PORTD_PCR6
   Definitions
      At line 1584 in file MKL46Z4.s
   Uses
      None
Comment: PORTD_PCR6 unused
PORTD_PCR6_OFFSET 00000018

Symbol: PORTD_PCR6_OFFSET
   Definitions
      At line 1549 in file MKL46Z4.s
   Uses
      At line 1584 in file MKL46Z4.s
Comment: PORTD_PCR6_OFFSET used once
PORTD_PCR7 4004C01C

Symbol: PORTD_PCR7
   Definitions
      At line 1585 in file MKL46Z4.s
   Uses
      None
Comment: PORTD_PCR7 unused
PORTD_PCR7_OFFSET 0000001C

Symbol: PORTD_PCR7_OFFSET
   Definitions
      At line 1550 in file MKL46Z4.s
   Uses
      At line 1585 in file MKL46Z4.s
Comment: PORTD_PCR7_OFFSET used once
PORTD_PCR8 4004C020

Symbol: PORTD_PCR8
   Definitions
      At line 1586 in file MKL46Z4.s
   Uses
      None
Comment: PORTD_PCR8 unused
PORTD_PCR8_OFFSET 00000020

Symbol: PORTD_PCR8_OFFSET
   Definitions



ARM Macro Assembler    Page 125 Alphabetic symbol ordering
Absolute symbols

      At line 1551 in file MKL46Z4.s
   Uses
      At line 1586 in file MKL46Z4.s
Comment: PORTD_PCR8_OFFSET used once
PORTD_PCR9 4004C024

Symbol: PORTD_PCR9
   Definitions
      At line 1587 in file MKL46Z4.s
   Uses
      None
Comment: PORTD_PCR9 unused
PORTD_PCR9_OFFSET 00000024

Symbol: PORTD_PCR9_OFFSET
   Definitions
      At line 1552 in file MKL46Z4.s
   Uses
      At line 1587 in file MKL46Z4.s
Comment: PORTD_PCR9_OFFSET used once
PORTD_Vector 0000002F

Symbol: PORTD_Vector
   Definitions
      At line 1174 in file MKL46Z4.s
   Uses
      None
Comment: PORTD_Vector unused
PORTE_BASE 4004D000

Symbol: PORTE_BASE
   Definitions
      At line 1615 in file MKL46Z4.s
   Uses
      At line 1651 in file MKL46Z4.s
      At line 1652 in file MKL46Z4.s
      At line 1653 in file MKL46Z4.s
      At line 1654 in file MKL46Z4.s
      At line 1655 in file MKL46Z4.s
      At line 1656 in file MKL46Z4.s
      At line 1657 in file MKL46Z4.s
      At line 1658 in file MKL46Z4.s
      At line 1659 in file MKL46Z4.s
      At line 1660 in file MKL46Z4.s
      At line 1661 in file MKL46Z4.s
      At line 1662 in file MKL46Z4.s
      At line 1663 in file MKL46Z4.s
      At line 1664 in file MKL46Z4.s
      At line 1665 in file MKL46Z4.s
      At line 1666 in file MKL46Z4.s
      At line 1667 in file MKL46Z4.s
      At line 1668 in file MKL46Z4.s
      At line 1669 in file MKL46Z4.s
      At line 1670 in file MKL46Z4.s
      At line 1671 in file MKL46Z4.s
      At line 1672 in file MKL46Z4.s
      At line 1673 in file MKL46Z4.s
      At line 1674 in file MKL46Z4.s
      At line 1675 in file MKL46Z4.s



ARM Macro Assembler    Page 126 Alphabetic symbol ordering
Absolute symbols

      At line 1676 in file MKL46Z4.s
      At line 1677 in file MKL46Z4.s
      At line 1678 in file MKL46Z4.s
      At line 1679 in file MKL46Z4.s
      At line 1680 in file MKL46Z4.s
      At line 1681 in file MKL46Z4.s
      At line 1682 in file MKL46Z4.s
      At line 1683 in file MKL46Z4.s
      At line 1684 in file MKL46Z4.s
      At line 1685 in file MKL46Z4.s
      At line 601 in file lab12_ASM.s

PORTE_GPCHR 4004D084

Symbol: PORTE_GPCHR
   Definitions
      At line 1684 in file MKL46Z4.s
   Uses
      None
Comment: PORTE_GPCHR unused
PORTE_GPCHR_OFFSET 00000084

Symbol: PORTE_GPCHR_OFFSET
   Definitions
      At line 1649 in file MKL46Z4.s
   Uses
      At line 1684 in file MKL46Z4.s
Comment: PORTE_GPCHR_OFFSET used once
PORTE_GPCLR 4004D080

Symbol: PORTE_GPCLR
   Definitions
      At line 1683 in file MKL46Z4.s
   Uses
      None
Comment: PORTE_GPCLR unused
PORTE_GPCLR_OFFSET 00000080

Symbol: PORTE_GPCLR_OFFSET
   Definitions
      At line 1648 in file MKL46Z4.s
   Uses
      At line 1683 in file MKL46Z4.s
Comment: PORTE_GPCLR_OFFSET used once
PORTE_ISFR 4004D0A0

Symbol: PORTE_ISFR
   Definitions
      At line 1685 in file MKL46Z4.s
   Uses
      None
Comment: PORTE_ISFR unused
PORTE_ISFR_OFFSET 000000A0

Symbol: PORTE_ISFR_OFFSET
   Definitions
      At line 1650 in file MKL46Z4.s
   Uses
      At line 1685 in file MKL46Z4.s



ARM Macro Assembler    Page 127 Alphabetic symbol ordering
Absolute symbols

Comment: PORTE_ISFR_OFFSET used once
PORTE_PCR0 4004D000

Symbol: PORTE_PCR0
   Definitions
      At line 1651 in file MKL46Z4.s
   Uses
      None
Comment: PORTE_PCR0 unused
PORTE_PCR0_OFFSET 00000000

Symbol: PORTE_PCR0_OFFSET
   Definitions
      At line 1616 in file MKL46Z4.s
   Uses
      At line 1651 in file MKL46Z4.s
Comment: PORTE_PCR0_OFFSET used once
PORTE_PCR1 4004D004

Symbol: PORTE_PCR1
   Definitions
      At line 1652 in file MKL46Z4.s
   Uses
      None
Comment: PORTE_PCR1 unused
PORTE_PCR10 4004D028

Symbol: PORTE_PCR10
   Definitions
      At line 1661 in file MKL46Z4.s
   Uses
      None
Comment: PORTE_PCR10 unused
PORTE_PCR10_OFFSET 00000028

Symbol: PORTE_PCR10_OFFSET
   Definitions
      At line 1626 in file MKL46Z4.s
   Uses
      At line 1661 in file MKL46Z4.s
Comment: PORTE_PCR10_OFFSET used once
PORTE_PCR11 4004D02C

Symbol: PORTE_PCR11
   Definitions
      At line 1662 in file MKL46Z4.s
   Uses
      None
Comment: PORTE_PCR11 unused
PORTE_PCR11_OFFSET 0000002C

Symbol: PORTE_PCR11_OFFSET
   Definitions
      At line 1627 in file MKL46Z4.s
   Uses
      At line 1662 in file MKL46Z4.s
Comment: PORTE_PCR11_OFFSET used once
PORTE_PCR12 4004D030




ARM Macro Assembler    Page 128 Alphabetic symbol ordering
Absolute symbols

Symbol: PORTE_PCR12
   Definitions
      At line 1663 in file MKL46Z4.s
   Uses
      None
Comment: PORTE_PCR12 unused
PORTE_PCR12_OFFSET 00000030

Symbol: PORTE_PCR12_OFFSET
   Definitions
      At line 1628 in file MKL46Z4.s
   Uses
      At line 1663 in file MKL46Z4.s
Comment: PORTE_PCR12_OFFSET used once
PORTE_PCR13 4004D034

Symbol: PORTE_PCR13
   Definitions
      At line 1664 in file MKL46Z4.s
   Uses
      None
Comment: PORTE_PCR13 unused
PORTE_PCR13_OFFSET 00000034

Symbol: PORTE_PCR13_OFFSET
   Definitions
      At line 1629 in file MKL46Z4.s
   Uses
      At line 1664 in file MKL46Z4.s
Comment: PORTE_PCR13_OFFSET used once
PORTE_PCR14 4004D038

Symbol: PORTE_PCR14
   Definitions
      At line 1665 in file MKL46Z4.s
   Uses
      None
Comment: PORTE_PCR14 unused
PORTE_PCR14_OFFSET 00000038

Symbol: PORTE_PCR14_OFFSET
   Definitions
      At line 1630 in file MKL46Z4.s
   Uses
      At line 1665 in file MKL46Z4.s
Comment: PORTE_PCR14_OFFSET used once
PORTE_PCR15 4004D03C

Symbol: PORTE_PCR15
   Definitions
      At line 1666 in file MKL46Z4.s
   Uses
      None
Comment: PORTE_PCR15 unused
PORTE_PCR15_OFFSET 0000003C

Symbol: PORTE_PCR15_OFFSET
   Definitions
      At line 1631 in file MKL46Z4.s



ARM Macro Assembler    Page 129 Alphabetic symbol ordering
Absolute symbols

   Uses
      At line 1666 in file MKL46Z4.s
Comment: PORTE_PCR15_OFFSET used once
PORTE_PCR16 4004D040

Symbol: PORTE_PCR16
   Definitions
      At line 1667 in file MKL46Z4.s
   Uses
      None
Comment: PORTE_PCR16 unused
PORTE_PCR16_OFFSET 00000040

Symbol: PORTE_PCR16_OFFSET
   Definitions
      At line 1632 in file MKL46Z4.s
   Uses
      At line 1667 in file MKL46Z4.s
Comment: PORTE_PCR16_OFFSET used once
PORTE_PCR17 4004D044

Symbol: PORTE_PCR17
   Definitions
      At line 1668 in file MKL46Z4.s
   Uses
      None
Comment: PORTE_PCR17 unused
PORTE_PCR17_OFFSET 00000044

Symbol: PORTE_PCR17_OFFSET
   Definitions
      At line 1633 in file MKL46Z4.s
   Uses
      At line 1668 in file MKL46Z4.s
Comment: PORTE_PCR17_OFFSET used once
PORTE_PCR18 4004D048

Symbol: PORTE_PCR18
   Definitions
      At line 1669 in file MKL46Z4.s
   Uses
      None
Comment: PORTE_PCR18 unused
PORTE_PCR18_OFFSET 00000048

Symbol: PORTE_PCR18_OFFSET
   Definitions
      At line 1634 in file MKL46Z4.s
   Uses
      At line 1669 in file MKL46Z4.s
Comment: PORTE_PCR18_OFFSET used once
PORTE_PCR19 4004D04C

Symbol: PORTE_PCR19
   Definitions
      At line 1670 in file MKL46Z4.s
   Uses
      None
Comment: PORTE_PCR19 unused



ARM Macro Assembler    Page 130 Alphabetic symbol ordering
Absolute symbols

PORTE_PCR19_OFFSET 0000004C

Symbol: PORTE_PCR19_OFFSET
   Definitions
      At line 1635 in file MKL46Z4.s
   Uses
      At line 1670 in file MKL46Z4.s
Comment: PORTE_PCR19_OFFSET used once
PORTE_PCR1_OFFSET 00000004

Symbol: PORTE_PCR1_OFFSET
   Definitions
      At line 1617 in file MKL46Z4.s
   Uses
      At line 1652 in file MKL46Z4.s
Comment: PORTE_PCR1_OFFSET used once
PORTE_PCR2 4004D008

Symbol: PORTE_PCR2
   Definitions
      At line 1653 in file MKL46Z4.s
   Uses
      None
Comment: PORTE_PCR2 unused
PORTE_PCR20 4004D050

Symbol: PORTE_PCR20
   Definitions
      At line 1671 in file MKL46Z4.s
   Uses
      None
Comment: PORTE_PCR20 unused
PORTE_PCR20_OFFSET 00000050

Symbol: PORTE_PCR20_OFFSET
   Definitions
      At line 1636 in file MKL46Z4.s
   Uses
      At line 1671 in file MKL46Z4.s
Comment: PORTE_PCR20_OFFSET used once
PORTE_PCR21 4004D054

Symbol: PORTE_PCR21
   Definitions
      At line 1672 in file MKL46Z4.s
   Uses
      None
Comment: PORTE_PCR21 unused
PORTE_PCR21_OFFSET 00000054

Symbol: PORTE_PCR21_OFFSET
   Definitions
      At line 1637 in file MKL46Z4.s
   Uses
      At line 1672 in file MKL46Z4.s
Comment: PORTE_PCR21_OFFSET used once
PORTE_PCR22 4004D058

Symbol: PORTE_PCR22



ARM Macro Assembler    Page 131 Alphabetic symbol ordering
Absolute symbols

   Definitions
      At line 1673 in file MKL46Z4.s
   Uses
      None
Comment: PORTE_PCR22 unused
PORTE_PCR22_OFFSET 00000058

Symbol: PORTE_PCR22_OFFSET
   Definitions
      At line 1638 in file MKL46Z4.s
   Uses
      At line 1673 in file MKL46Z4.s
Comment: PORTE_PCR22_OFFSET used once
PORTE_PCR23 4004D05C

Symbol: PORTE_PCR23
   Definitions
      At line 1674 in file MKL46Z4.s
   Uses
      None
Comment: PORTE_PCR23 unused
PORTE_PCR23_OFFSET 0000005C

Symbol: PORTE_PCR23_OFFSET
   Definitions
      At line 1639 in file MKL46Z4.s
   Uses
      At line 1674 in file MKL46Z4.s
Comment: PORTE_PCR23_OFFSET used once
PORTE_PCR24 4004D060

Symbol: PORTE_PCR24
   Definitions
      At line 1675 in file MKL46Z4.s
   Uses
      None
Comment: PORTE_PCR24 unused
PORTE_PCR24_OFFSET 00000060

Symbol: PORTE_PCR24_OFFSET
   Definitions
      At line 1640 in file MKL46Z4.s
   Uses
      At line 1675 in file MKL46Z4.s
Comment: PORTE_PCR24_OFFSET used once
PORTE_PCR25 4004D064

Symbol: PORTE_PCR25
   Definitions
      At line 1676 in file MKL46Z4.s
   Uses
      None
Comment: PORTE_PCR25 unused
PORTE_PCR25_OFFSET 00000064

Symbol: PORTE_PCR25_OFFSET
   Definitions
      At line 1641 in file MKL46Z4.s
   Uses



ARM Macro Assembler    Page 132 Alphabetic symbol ordering
Absolute symbols

      At line 1676 in file MKL46Z4.s
Comment: PORTE_PCR25_OFFSET used once
PORTE_PCR26 4004D068

Symbol: PORTE_PCR26
   Definitions
      At line 1677 in file MKL46Z4.s
   Uses
      None
Comment: PORTE_PCR26 unused
PORTE_PCR26_OFFSET 00000068

Symbol: PORTE_PCR26_OFFSET
   Definitions
      At line 1642 in file MKL46Z4.s
   Uses
      At line 1677 in file MKL46Z4.s
Comment: PORTE_PCR26_OFFSET used once
PORTE_PCR27 4004D06C

Symbol: PORTE_PCR27
   Definitions
      At line 1678 in file MKL46Z4.s
   Uses
      None
Comment: PORTE_PCR27 unused
PORTE_PCR27_OFFSET 0000006C

Symbol: PORTE_PCR27_OFFSET
   Definitions
      At line 1643 in file MKL46Z4.s
   Uses
      At line 1678 in file MKL46Z4.s
Comment: PORTE_PCR27_OFFSET used once
PORTE_PCR28 4004D070

Symbol: PORTE_PCR28
   Definitions
      At line 1679 in file MKL46Z4.s
   Uses
      None
Comment: PORTE_PCR28 unused
PORTE_PCR28_OFFSET 00000070

Symbol: PORTE_PCR28_OFFSET
   Definitions
      At line 1644 in file MKL46Z4.s
   Uses
      At line 1679 in file MKL46Z4.s
Comment: PORTE_PCR28_OFFSET used once
PORTE_PCR29 4004D074

Symbol: PORTE_PCR29
   Definitions
      At line 1680 in file MKL46Z4.s
   Uses
      None
Comment: PORTE_PCR29 unused
PORTE_PCR29_OFFSET 00000074



ARM Macro Assembler    Page 133 Alphabetic symbol ordering
Absolute symbols


Symbol: PORTE_PCR29_OFFSET
   Definitions
      At line 1645 in file MKL46Z4.s
   Uses
      At line 1680 in file MKL46Z4.s
      At line 603 in file lab12_ASM.s

PORTE_PCR2_OFFSET 00000008

Symbol: PORTE_PCR2_OFFSET
   Definitions
      At line 1618 in file MKL46Z4.s
   Uses
      At line 1653 in file MKL46Z4.s
Comment: PORTE_PCR2_OFFSET used once
PORTE_PCR3 4004D00C

Symbol: PORTE_PCR3
   Definitions
      At line 1654 in file MKL46Z4.s
   Uses
      None
Comment: PORTE_PCR3 unused
PORTE_PCR30 4004D078

Symbol: PORTE_PCR30
   Definitions
      At line 1681 in file MKL46Z4.s
   Uses
      None
Comment: PORTE_PCR30 unused
PORTE_PCR30_OFFSET 00000078

Symbol: PORTE_PCR30_OFFSET
   Definitions
      At line 1646 in file MKL46Z4.s
   Uses
      At line 1681 in file MKL46Z4.s
Comment: PORTE_PCR30_OFFSET used once
PORTE_PCR31 4004D07C

Symbol: PORTE_PCR31
   Definitions
      At line 1682 in file MKL46Z4.s
   Uses
      None
Comment: PORTE_PCR31 unused
PORTE_PCR31_OFFSET 0000007C

Symbol: PORTE_PCR31_OFFSET
   Definitions
      At line 1647 in file MKL46Z4.s
   Uses
      At line 1682 in file MKL46Z4.s
Comment: PORTE_PCR31_OFFSET used once
PORTE_PCR3_OFFSET 0000000C

Symbol: PORTE_PCR3_OFFSET



ARM Macro Assembler    Page 134 Alphabetic symbol ordering
Absolute symbols

   Definitions
      At line 1619 in file MKL46Z4.s
   Uses
      At line 1654 in file MKL46Z4.s
Comment: PORTE_PCR3_OFFSET used once
PORTE_PCR4 4004D010

Symbol: PORTE_PCR4
   Definitions
      At line 1655 in file MKL46Z4.s
   Uses
      None
Comment: PORTE_PCR4 unused
PORTE_PCR4_OFFSET 00000010

Symbol: PORTE_PCR4_OFFSET
   Definitions
      At line 1620 in file MKL46Z4.s
   Uses
      At line 1655 in file MKL46Z4.s
Comment: PORTE_PCR4_OFFSET used once
PORTE_PCR5 4004D014

Symbol: PORTE_PCR5
   Definitions
      At line 1656 in file MKL46Z4.s
   Uses
      None
Comment: PORTE_PCR5 unused
PORTE_PCR5_OFFSET 00000014

Symbol: PORTE_PCR5_OFFSET
   Definitions
      At line 1621 in file MKL46Z4.s
   Uses
      At line 1656 in file MKL46Z4.s
Comment: PORTE_PCR5_OFFSET used once
PORTE_PCR6 4004D018

Symbol: PORTE_PCR6
   Definitions
      At line 1657 in file MKL46Z4.s
   Uses
      None
Comment: PORTE_PCR6 unused
PORTE_PCR6_OFFSET 00000018

Symbol: PORTE_PCR6_OFFSET
   Definitions
      At line 1622 in file MKL46Z4.s
   Uses
      At line 1657 in file MKL46Z4.s
Comment: PORTE_PCR6_OFFSET used once
PORTE_PCR7 4004D01C

Symbol: PORTE_PCR7
   Definitions
      At line 1658 in file MKL46Z4.s
   Uses



ARM Macro Assembler    Page 135 Alphabetic symbol ordering
Absolute symbols

      None
Comment: PORTE_PCR7 unused
PORTE_PCR7_OFFSET 0000001C

Symbol: PORTE_PCR7_OFFSET
   Definitions
      At line 1623 in file MKL46Z4.s
   Uses
      At line 1658 in file MKL46Z4.s
Comment: PORTE_PCR7_OFFSET used once
PORTE_PCR8 4004D020

Symbol: PORTE_PCR8
   Definitions
      At line 1659 in file MKL46Z4.s
   Uses
      None
Comment: PORTE_PCR8 unused
PORTE_PCR8_OFFSET 00000020

Symbol: PORTE_PCR8_OFFSET
   Definitions
      At line 1624 in file MKL46Z4.s
   Uses
      At line 1659 in file MKL46Z4.s
Comment: PORTE_PCR8_OFFSET used once
PORTE_PCR9 4004D024

Symbol: PORTE_PCR9
   Definitions
      At line 1660 in file MKL46Z4.s
   Uses
      None
Comment: PORTE_PCR9 unused
PORTE_PCR9_OFFSET 00000024

Symbol: PORTE_PCR9_OFFSET
   Definitions
      At line 1625 in file MKL46Z4.s
   Uses
      At line 1660 in file MKL46Z4.s
Comment: PORTE_PCR9_OFFSET used once
PORT_PCR_DSE_MASK 00000040

Symbol: PORT_PCR_DSE_MASK
   Definitions
      At line 1303 in file MKL46Z4.s
   Uses
      None
Comment: PORT_PCR_DSE_MASK unused
PORT_PCR_DSE_SHIFT 00000006

Symbol: PORT_PCR_DSE_SHIFT
   Definitions
      At line 1304 in file MKL46Z4.s
   Uses
      None
Comment: PORT_PCR_DSE_SHIFT unused
PORT_PCR_IRCQ_MASK 000F0000



ARM Macro Assembler    Page 136 Alphabetic symbol ordering
Absolute symbols


Symbol: PORT_PCR_IRCQ_MASK
   Definitions
      At line 1299 in file MKL46Z4.s
   Uses
      None
Comment: PORT_PCR_IRCQ_MASK unused
PORT_PCR_IRCQ_SHIFT 00000010

Symbol: PORT_PCR_IRCQ_SHIFT
   Definitions
      At line 1300 in file MKL46Z4.s
   Uses
      None
Comment: PORT_PCR_IRCQ_SHIFT unused
PORT_PCR_ISF_MASK 01000000

Symbol: PORT_PCR_ISF_MASK
   Definitions
      At line 1297 in file MKL46Z4.s
   Uses
      At line 73 in file lab12_ASM.s
      At line 75 in file lab12_ASM.s
      At line 246 in file lab12_ASM.s
      At line 252 in file lab12_ASM.s

PORT_PCR_ISF_SHIFT 00000018

Symbol: PORT_PCR_ISF_SHIFT
   Definitions
      At line 1298 in file MKL46Z4.s
   Uses
      None
Comment: PORT_PCR_ISF_SHIFT unused
PORT_PCR_MUX_MASK 00000700

Symbol: PORT_PCR_MUX_MASK
   Definitions
      At line 1301 in file MKL46Z4.s
   Uses
      None
Comment: PORT_PCR_MUX_MASK unused
PORT_PCR_MUX_SELECT_0_MASK 00000000

Symbol: PORT_PCR_MUX_SELECT_0_MASK
   Definitions
      At line 1313 in file MKL46Z4.s
   Uses
      None
Comment: PORT_PCR_MUX_SELECT_0_MASK unused
PORT_PCR_MUX_SELECT_1_MASK 00000100

Symbol: PORT_PCR_MUX_SELECT_1_MASK
   Definitions
      At line 1314 in file MKL46Z4.s
   Uses
      None
Comment: PORT_PCR_MUX_SELECT_1_MASK unused
PORT_PCR_MUX_SELECT_2_MASK 00000200



ARM Macro Assembler    Page 137 Alphabetic symbol ordering
Absolute symbols


Symbol: PORT_PCR_MUX_SELECT_2_MASK
   Definitions
      At line 1315 in file MKL46Z4.s
   Uses
      At line 73 in file lab12_ASM.s
      At line 75 in file lab12_ASM.s

PORT_PCR_MUX_SELECT_3_MASK 00000300

Symbol: PORT_PCR_MUX_SELECT_3_MASK
   Definitions
      At line 1316 in file MKL46Z4.s
   Uses
      None
Comment: PORT_PCR_MUX_SELECT_3_MASK unused
PORT_PCR_MUX_SELECT_4_MASK 00000400

Symbol: PORT_PCR_MUX_SELECT_4_MASK
   Definitions
      At line 1317 in file MKL46Z4.s
   Uses
      None
Comment: PORT_PCR_MUX_SELECT_4_MASK unused
PORT_PCR_MUX_SELECT_5_MASK 00000500

Symbol: PORT_PCR_MUX_SELECT_5_MASK
   Definitions
      At line 1318 in file MKL46Z4.s
   Uses
      None
Comment: PORT_PCR_MUX_SELECT_5_MASK unused
PORT_PCR_MUX_SELECT_6_MASK 00000600

Symbol: PORT_PCR_MUX_SELECT_6_MASK
   Definitions
      At line 1319 in file MKL46Z4.s
   Uses
      None
Comment: PORT_PCR_MUX_SELECT_6_MASK unused
PORT_PCR_MUX_SELECT_7_MASK 00000700

Symbol: PORT_PCR_MUX_SELECT_7_MASK
   Definitions
      At line 1320 in file MKL46Z4.s
   Uses
      None
Comment: PORT_PCR_MUX_SELECT_7_MASK unused
PORT_PCR_MUX_SHIFT 00000008

Symbol: PORT_PCR_MUX_SHIFT
   Definitions
      At line 1302 in file MKL46Z4.s
   Uses
      At line 245 in file lab12_ASM.s
      At line 251 in file lab12_ASM.s

PORT_PCR_PE_MASK 00000002




ARM Macro Assembler    Page 138 Alphabetic symbol ordering
Absolute symbols

Symbol: PORT_PCR_PE_MASK
   Definitions
      At line 1309 in file MKL46Z4.s
   Uses
      None
Comment: PORT_PCR_PE_MASK unused
PORT_PCR_PE_SHIFT 00000001

Symbol: PORT_PCR_PE_SHIFT
   Definitions
      At line 1310 in file MKL46Z4.s
   Uses
      None
Comment: PORT_PCR_PE_SHIFT unused
PORT_PCR_PFE_MASK 00000010

Symbol: PORT_PCR_PFE_MASK
   Definitions
      At line 1305 in file MKL46Z4.s
   Uses
      None
Comment: PORT_PCR_PFE_MASK unused
PORT_PCR_PFE_SHIFT 00000004

Symbol: PORT_PCR_PFE_SHIFT
   Definitions
      At line 1306 in file MKL46Z4.s
   Uses
      None
Comment: PORT_PCR_PFE_SHIFT unused
PORT_PCR_PS_MASK 00000001

Symbol: PORT_PCR_PS_MASK
   Definitions
      At line 1311 in file MKL46Z4.s
   Uses
      None
Comment: PORT_PCR_PS_MASK unused
PORT_PCR_PS_SHIFT 00000000

Symbol: PORT_PCR_PS_SHIFT
   Definitions
      At line 1312 in file MKL46Z4.s
   Uses
      None
Comment: PORT_PCR_PS_SHIFT unused
PORT_PCR_SET_PTA1_UART0_RX 01000200

Symbol: PORT_PCR_SET_PTA1_UART0_RX
   Definitions
      At line 73 in file lab12_ASM.s
   Uses
      At line 655 in file lab12_ASM.s
Comment: PORT_PCR_SET_PTA1_UART0_RX used once
PORT_PCR_SET_PTA2_UART0_TX 01000200

Symbol: PORT_PCR_SET_PTA2_UART0_TX
   Definitions
      At line 75 in file lab12_ASM.s



ARM Macro Assembler    Page 139 Alphabetic symbol ordering
Absolute symbols

   Uses
      At line 659 in file lab12_ASM.s
Comment: PORT_PCR_SET_PTA2_UART0_TX used once
PORT_PCR_SRE_MASK 00000004

Symbol: PORT_PCR_SRE_MASK
   Definitions
      At line 1307 in file MKL46Z4.s
   Uses
      None
Comment: PORT_PCR_SRE_MASK unused
PORT_PCR_SRE_SHIFT 00000002

Symbol: PORT_PCR_SRE_SHIFT
   Definitions
      At line 1308 in file MKL46Z4.s
   Uses
      None
Comment: PORT_PCR_SRE_SHIFT unused
POS_GREEN 00000005

Symbol: POS_GREEN
   Definitions
      At line 247 in file lab12_ASM.s
   Uses
      At line 248 in file lab12_ASM.s
Comment: POS_GREEN used once
POS_RED 0000001D

Symbol: POS_RED
   Definitions
      At line 253 in file lab12_ASM.s
   Uses
      At line 254 in file lab12_ASM.s
Comment: POS_RED used once
PSR_C_MASK 20000000

Symbol: PSR_C_MASK
   Definitions
      At line 96 in file MKL46Z4.s
   Uses
      None
Comment: PSR_C_MASK unused
PSR_C_SHIFT 0000001D

Symbol: PSR_C_SHIFT
   Definitions
      At line 97 in file MKL46Z4.s
   Uses
      None
Comment: PSR_C_SHIFT unused
PSR_EXCEPTION_MASK 0000003F

Symbol: PSR_EXCEPTION_MASK
   Definitions
      At line 102 in file MKL46Z4.s
   Uses
      None
Comment: PSR_EXCEPTION_MASK unused



ARM Macro Assembler    Page 140 Alphabetic symbol ordering
Absolute symbols

PSR_EXCEPTION_SHIFT 00000000

Symbol: PSR_EXCEPTION_SHIFT
   Definitions
      At line 103 in file MKL46Z4.s
   Uses
      None
Comment: PSR_EXCEPTION_SHIFT unused
PSR_N_MASK 80000000

Symbol: PSR_N_MASK
   Definitions
      At line 92 in file MKL46Z4.s
   Uses
      None
Comment: PSR_N_MASK unused
PSR_N_SHIFT 0000001F

Symbol: PSR_N_SHIFT
   Definitions
      At line 93 in file MKL46Z4.s
   Uses
      None
Comment: PSR_N_SHIFT unused
PSR_T_MASK 01000000

Symbol: PSR_T_MASK
   Definitions
      At line 100 in file MKL46Z4.s
   Uses
      None
Comment: PSR_T_MASK unused
PSR_T_SHIFT 00000018

Symbol: PSR_T_SHIFT
   Definitions
      At line 101 in file MKL46Z4.s
   Uses
      None
Comment: PSR_T_SHIFT unused
PSR_V_MASK 10000000

Symbol: PSR_V_MASK
   Definitions
      At line 98 in file MKL46Z4.s
   Uses
      None
Comment: PSR_V_MASK unused
PSR_V_SHIFT 0000001C

Symbol: PSR_V_SHIFT
   Definitions
      At line 99 in file MKL46Z4.s
   Uses
      None
Comment: PSR_V_SHIFT unused
PSR_Z_MASK 40000000

Symbol: PSR_Z_MASK



ARM Macro Assembler    Page 141 Alphabetic symbol ordering
Absolute symbols

   Definitions
      At line 94 in file MKL46Z4.s
   Uses
      None
Comment: PSR_Z_MASK unused
PSR_Z_SHIFT 0000001E

Symbol: PSR_Z_SHIFT
   Definitions
      At line 95 in file MKL46Z4.s
   Uses
      None
Comment: PSR_Z_SHIFT unused
PTD5_MUX_GPIO 00000100

Symbol: PTD5_MUX_GPIO
   Definitions
      At line 245 in file lab12_ASM.s
   Uses
      At line 246 in file lab12_ASM.s
Comment: PTD5_MUX_GPIO used once
PTE29_MUX_GPIO 00000100

Symbol: PTE29_MUX_GPIO
   Definitions
      At line 251 in file lab12_ASM.s
   Uses
      At line 252 in file lab12_ASM.s
Comment: PTE29_MUX_GPIO used once
PendSR_Vector 0000000E

Symbol: PendSR_Vector
   Definitions
      At line 1141 in file MKL46Z4.s
   Uses
      None
Comment: PendSR_Vector unused
Q_BUFFER_SZ 00000004

Symbol: Q_BUFFER_SZ
   Definitions
      At line 238 in file lab12_ASM.s
   Uses
      None
Comment: Q_BUFFER_SZ unused
Q_BUF_SZ 00000050

Symbol: Q_BUF_SZ
   Definitions
      At line 236 in file lab12_ASM.s
   Uses
      At line 707 in file lab12_ASM.s
      At line 878 in file lab12_ASM.s
      At line 881 in file lab12_ASM.s

Q_REC_SZ 00000012

Symbol: Q_REC_SZ
   Definitions



ARM Macro Assembler    Page 142 Alphabetic symbol ordering
Absolute symbols

      At line 237 in file lab12_ASM.s
   Uses
      At line 877 in file lab12_ASM.s
      At line 880 in file lab12_ASM.s

RET_ADDR_T_MASK 00000001

Symbol: RET_ADDR_T_MASK
   Definitions
      At line 34 in file MKL46Z4.s
   Uses
      None
Comment: RET_ADDR_T_MASK unused
RTC_IPR E000E414

Symbol: RTC_IPR
   Definitions
      At line 1009 in file MKL46Z4.s
   Uses
      None
Comment: RTC_IPR unused
RTC_IRQ 00000014

Symbol: RTC_IRQ
   Definitions
      At line 1079 in file MKL46Z4.s
   Uses
      At line 1113 in file MKL46Z4.s
Comment: RTC_IRQ used once
RTC_IRQ_MASK 00100000

Symbol: RTC_IRQ_MASK
   Definitions
      At line 1113 in file MKL46Z4.s
   Uses
      None
Comment: RTC_IRQ_MASK unused
RTC_PRI_POS 00000006

Symbol: RTC_PRI_POS
   Definitions
      At line 1045 in file MKL46Z4.s
   Uses
      None
Comment: RTC_PRI_POS unused
RTC_Seconds_IPR E000E414

Symbol: RTC_Seconds_IPR
   Definitions
      At line 1010 in file MKL46Z4.s
   Uses
      None
Comment: RTC_Seconds_IPR unused
RTC_Seconds_IRQ 00000015

Symbol: RTC_Seconds_IRQ
   Definitions
      At line 1080 in file MKL46Z4.s
   Uses



ARM Macro Assembler    Page 143 Alphabetic symbol ordering
Absolute symbols

      At line 1114 in file MKL46Z4.s
Comment: RTC_Seconds_IRQ used once
RTC_Seconds_IRQ_MASK 00200000

Symbol: RTC_Seconds_IRQ_MASK
   Definitions
      At line 1114 in file MKL46Z4.s
   Uses
      None
Comment: RTC_Seconds_IRQ_MASK unused
RTC_Seconds_PRI_POS 0000000E

Symbol: RTC_Seconds_PRI_POS
   Definitions
      At line 1046 in file MKL46Z4.s
   Uses
      None
Comment: RTC_Seconds_PRI_POS unused
RTC_Seconds_Vector 00000025

Symbol: RTC_Seconds_Vector
   Definitions
      At line 1164 in file MKL46Z4.s
   Uses
      None
Comment: RTC_Seconds_Vector unused
RTC_Vector 00000024

Symbol: RTC_Vector
   Definitions
      At line 1163 in file MKL46Z4.s
   Uses
      None
Comment: RTC_Vector unused
Reserved04_Vector 00000004

Symbol: Reserved04_Vector
   Definitions
      At line 1131 in file MKL46Z4.s
   Uses
      None
Comment: Reserved04_Vector unused
Reserved05_Vector 00000005

Symbol: Reserved05_Vector
   Definitions
      At line 1132 in file MKL46Z4.s
   Uses
      None
Comment: Reserved05_Vector unused
Reserved06_Vector 00000006

Symbol: Reserved06_Vector
   Definitions
      At line 1133 in file MKL46Z4.s
   Uses
      None
Comment: Reserved06_Vector unused
Reserved07_Vector 00000007



ARM Macro Assembler    Page 144 Alphabetic symbol ordering
Absolute symbols


Symbol: Reserved07_Vector
   Definitions
      At line 1134 in file MKL46Z4.s
   Uses
      None
Comment: Reserved07_Vector unused
Reserved08_Vector 00000008

Symbol: Reserved08_Vector
   Definitions
      At line 1135 in file MKL46Z4.s
   Uses
      None
Comment: Reserved08_Vector unused
Reserved09_Vector 00000009

Symbol: Reserved09_Vector
   Definitions
      At line 1136 in file MKL46Z4.s
   Uses
      None
Comment: Reserved09_Vector unused
Reserved10_Vector 0000000A

Symbol: Reserved10_Vector
   Definitions
      At line 1137 in file MKL46Z4.s
   Uses
      None
Comment: Reserved10_Vector unused
Reserved12_Vector 0000000C

Symbol: Reserved12_Vector
   Definitions
      At line 1139 in file MKL46Z4.s
   Uses
      None
Comment: Reserved12_Vector unused
Reserved13_Vector 0000000D

Symbol: Reserved13_Vector
   Definitions
      At line 1140 in file MKL46Z4.s
   Uses
      None
Comment: Reserved13_Vector unused
Reserved20_IPR E000E404

Symbol: Reserved20_IPR
   Definitions
      At line 993 in file MKL46Z4.s
   Uses
      None
Comment: Reserved20_IPR unused
Reserved20_IRQ 00000004

Symbol: Reserved20_IRQ
   Definitions



ARM Macro Assembler    Page 145 Alphabetic symbol ordering
Absolute symbols

      At line 1063 in file MKL46Z4.s
   Uses
      At line 1097 in file MKL46Z4.s
Comment: Reserved20_IRQ used once
Reserved20_IRQ_MASK 00000010

Symbol: Reserved20_IRQ_MASK
   Definitions
      At line 1097 in file MKL46Z4.s
   Uses
      None
Comment: Reserved20_IRQ_MASK unused
Reserved20_PRI_POS 00000006

Symbol: Reserved20_PRI_POS
   Definitions
      At line 1029 in file MKL46Z4.s
   Uses
      None
Comment: Reserved20_PRI_POS unused
Reserved20_Vector 00000014

Symbol: Reserved20_Vector
   Definitions
      At line 1147 in file MKL46Z4.s
   Uses
      None
Comment: Reserved20_Vector unused
Reset_Vector 00000001

Symbol: Reset_Vector
   Definitions
      At line 1128 in file MKL46Z4.s
   Uses
      None
Comment: Reset_Vector unused
SET_PTD5_GPIO 01000100

Symbol: SET_PTD5_GPIO
   Definitions
      At line 246 in file lab12_ASM.s
   Uses
      At line 606 in file lab12_ASM.s
Comment: SET_PTD5_GPIO used once
SET_PTE29_GPIO 01000100

Symbol: SET_PTE29_GPIO
   Definitions
      At line 252 in file lab12_ASM.s
   Uses
      At line 602 in file lab12_ASM.s
Comment: SET_PTE29_GPIO used once
SIM_BASE 40047000

Symbol: SIM_BASE
   Definitions
      At line 1688 in file MKL46Z4.s
   Uses
      At line 1707 in file MKL46Z4.s



ARM Macro Assembler    Page 146 Alphabetic symbol ordering
Absolute symbols

      At line 1708 in file MKL46Z4.s
      At line 1709 in file MKL46Z4.s
      At line 1710 in file MKL46Z4.s
      At line 1711 in file MKL46Z4.s
      At line 1712 in file MKL46Z4.s
      At line 1713 in file MKL46Z4.s
      At line 1714 in file MKL46Z4.s
      At line 1715 in file MKL46Z4.s
      At line 1716 in file MKL46Z4.s
      At line 1717 in file MKL46Z4.s
      At line 1718 in file MKL46Z4.s
      At line 1719 in file MKL46Z4.s
      At line 1720 in file MKL46Z4.s
      At line 1721 in file MKL46Z4.s
      At line 1722 in file MKL46Z4.s
      At line 1723 in file MKL46Z4.s
      At line 1724 in file MKL46Z4.s

SIM_CLKDIV1 40048044

Symbol: SIM_CLKDIV1
   Definitions
      At line 1707 in file MKL46Z4.s
   Uses
      None
Comment: SIM_CLKDIV1 unused
SIM_CLKDIV1_OFFSET 00001044

Symbol: SIM_CLKDIV1_OFFSET
   Definitions
      At line 1699 in file MKL46Z4.s
   Uses
      At line 1707 in file MKL46Z4.s
Comment: SIM_CLKDIV1_OFFSET used once
SIM_CLKDIV1_OUTDIV1_DIV2_MASK 10000000

Symbol: SIM_CLKDIV1_OUTDIV1_DIV2_MASK
   Definitions
      At line 1741 in file MKL46Z4.s
   Uses
      At line 1744 in file MKL46Z4.s
Comment: SIM_CLKDIV1_OUTDIV1_DIV2_MASK used once
SIM_CLKDIV1_OUTDIV1_MASK F0000000

Symbol: SIM_CLKDIV1_OUTDIV1_MASK
   Definitions
      At line 1737 in file MKL46Z4.s
   Uses
      None
Comment: SIM_CLKDIV1_OUTDIV1_MASK unused
SIM_CLKDIV1_OUTDIV1_SHIFT 0000001C

Symbol: SIM_CLKDIV1_OUTDIV1_SHIFT
   Definitions
      At line 1738 in file MKL46Z4.s
   Uses
      None
Comment: SIM_CLKDIV1_OUTDIV1_SHIFT unused
SIM_CLKDIV1_OUTDIV4_DIV2_MASK 00010000



ARM Macro Assembler    Page 147 Alphabetic symbol ordering
Absolute symbols


Symbol: SIM_CLKDIV1_OUTDIV4_DIV2_MASK
   Definitions
      At line 1742 in file MKL46Z4.s
   Uses
      At line 1744 in file MKL46Z4.s
Comment: SIM_CLKDIV1_OUTDIV4_DIV2_MASK used once
SIM_CLKDIV1_OUTDIV4_MASK 00070000

Symbol: SIM_CLKDIV1_OUTDIV4_MASK
   Definitions
      At line 1739 in file MKL46Z4.s
   Uses
      None
Comment: SIM_CLKDIV1_OUTDIV4_MASK unused
SIM_CLKDIV1_OUTDIV4_SHIFT 00000010

Symbol: SIM_CLKDIV1_OUTDIV4_SHIFT
   Definitions
      At line 1740 in file MKL46Z4.s
   Uses
      None
Comment: SIM_CLKDIV1_OUTDIV4_SHIFT unused
SIM_COPC 40048100

Symbol: SIM_COPC
   Definitions
      At line 1708 in file MKL46Z4.s
   Uses
      None
Comment: SIM_COPC unused
SIM_COPC_OFFSET 00001100

Symbol: SIM_COPC_OFFSET
   Definitions
      At line 1705 in file MKL46Z4.s
   Uses
      At line 1708 in file MKL46Z4.s
Comment: SIM_COPC_OFFSET used once
SIM_CORE_DIV2_BUS_DIV2 10010000

Symbol: SIM_CORE_DIV2_BUS_DIV2
   Definitions
      At line 1744 in file MKL46Z4.s
   Uses
      None
Comment: SIM_CORE_DIV2_BUS_DIV2 unused
SIM_FCFG1 4004804C

Symbol: SIM_FCFG1
   Definitions
      At line 1709 in file MKL46Z4.s
   Uses
      None
Comment: SIM_FCFG1 unused
SIM_FCFG1_OFFSET 0000104C

Symbol: SIM_FCFG1_OFFSET
   Definitions



ARM Macro Assembler    Page 148 Alphabetic symbol ordering
Absolute symbols

      At line 1700 in file MKL46Z4.s
   Uses
      At line 1709 in file MKL46Z4.s
Comment: SIM_FCFG1_OFFSET used once
SIM_FCFG2 40048050

Symbol: SIM_FCFG2
   Definitions
      At line 1710 in file MKL46Z4.s
   Uses
      None
Comment: SIM_FCFG2 unused
SIM_FCFG2_OFFSET 00001050

Symbol: SIM_FCFG2_OFFSET
   Definitions
      At line 1701 in file MKL46Z4.s
   Uses
      At line 1710 in file MKL46Z4.s
Comment: SIM_FCFG2_OFFSET used once
SIM_SCGC4 40048034

Symbol: SIM_SCGC4
   Definitions
      At line 1711 in file MKL46Z4.s
   Uses
      At line 642 in file lab12_ASM.s
Comment: SIM_SCGC4 used once
SIM_SCGC4_CMP_MASK 00080000

Symbol: SIM_SCGC4_CMP_MASK
   Definitions
      At line 1787 in file MKL46Z4.s
   Uses
      None
Comment: SIM_SCGC4_CMP_MASK unused
SIM_SCGC4_CMP_SHIFT 00000013

Symbol: SIM_SCGC4_CMP_SHIFT
   Definitions
      At line 1788 in file MKL46Z4.s
   Uses
      None
Comment: SIM_SCGC4_CMP_SHIFT unused
SIM_SCGC4_I2C0_MASK 00000040

Symbol: SIM_SCGC4_I2C0_MASK
   Definitions
      At line 1799 in file MKL46Z4.s
   Uses
      None
Comment: SIM_SCGC4_I2C0_MASK unused
SIM_SCGC4_I2C0_SHIFT 00000006

Symbol: SIM_SCGC4_I2C0_SHIFT
   Definitions
      At line 1800 in file MKL46Z4.s
   Uses
      None



ARM Macro Assembler    Page 149 Alphabetic symbol ordering
Absolute symbols

Comment: SIM_SCGC4_I2C0_SHIFT unused
SIM_SCGC4_I2C1_MASK 00000080

Symbol: SIM_SCGC4_I2C1_MASK
   Definitions
      At line 1797 in file MKL46Z4.s
   Uses
      None
Comment: SIM_SCGC4_I2C1_MASK unused
SIM_SCGC4_I2C1_SHIFT 00000007

Symbol: SIM_SCGC4_I2C1_SHIFT
   Definitions
      At line 1798 in file MKL46Z4.s
   Uses
      None
Comment: SIM_SCGC4_I2C1_SHIFT unused
SIM_SCGC4_OFFSET 00001034

Symbol: SIM_SCGC4_OFFSET
   Definitions
      At line 1695 in file MKL46Z4.s
   Uses
      At line 1711 in file MKL46Z4.s
Comment: SIM_SCGC4_OFFSET used once
SIM_SCGC4_SPI0_MASK 00400000

Symbol: SIM_SCGC4_SPI0_MASK
   Definitions
      At line 1785 in file MKL46Z4.s
   Uses
      None
Comment: SIM_SCGC4_SPI0_MASK unused
SIM_SCGC4_SPI0_SHIFT 00000016

Symbol: SIM_SCGC4_SPI0_SHIFT
   Definitions
      At line 1786 in file MKL46Z4.s
   Uses
      None
Comment: SIM_SCGC4_SPI0_SHIFT unused
SIM_SCGC4_SPI1_MASK 00800000

Symbol: SIM_SCGC4_SPI1_MASK
   Definitions
      At line 1783 in file MKL46Z4.s
   Uses
      None
Comment: SIM_SCGC4_SPI1_MASK unused
SIM_SCGC4_SPI1_SHIFT 00000017

Symbol: SIM_SCGC4_SPI1_SHIFT
   Definitions
      At line 1784 in file MKL46Z4.s
   Uses
      None
Comment: SIM_SCGC4_SPI1_SHIFT unused
SIM_SCGC4_UART0_MASK 00000400




ARM Macro Assembler    Page 150 Alphabetic symbol ordering
Absolute symbols

Symbol: SIM_SCGC4_UART0_MASK
   Definitions
      At line 1795 in file MKL46Z4.s
   Uses
      At line 643 in file lab12_ASM.s
Comment: SIM_SCGC4_UART0_MASK used once
SIM_SCGC4_UART0_SHIFT 0000000A

Symbol: SIM_SCGC4_UART0_SHIFT
   Definitions
      At line 1796 in file MKL46Z4.s
   Uses
      None
Comment: SIM_SCGC4_UART0_SHIFT unused
SIM_SCGC4_UART1_MASK 00000800

Symbol: SIM_SCGC4_UART1_MASK
   Definitions
      At line 1793 in file MKL46Z4.s
   Uses
      None
Comment: SIM_SCGC4_UART1_MASK unused
SIM_SCGC4_UART1_SHIFT 0000000B

Symbol: SIM_SCGC4_UART1_SHIFT
   Definitions
      At line 1794 in file MKL46Z4.s
   Uses
      None
Comment: SIM_SCGC4_UART1_SHIFT unused
SIM_SCGC4_UART2_MASK 00001000

Symbol: SIM_SCGC4_UART2_MASK
   Definitions
      At line 1791 in file MKL46Z4.s
   Uses
      None
Comment: SIM_SCGC4_UART2_MASK unused
SIM_SCGC4_UART2_SHIFT 0000000C

Symbol: SIM_SCGC4_UART2_SHIFT
   Definitions
      At line 1792 in file MKL46Z4.s
   Uses
      None
Comment: SIM_SCGC4_UART2_SHIFT unused
SIM_SCGC4_USBOTG_MASK 00040000

Symbol: SIM_SCGC4_USBOTG_MASK
   Definitions
      At line 1789 in file MKL46Z4.s
   Uses
      None
Comment: SIM_SCGC4_USBOTG_MASK unused
SIM_SCGC4_USBOTG_SHIFT 00000012

Symbol: SIM_SCGC4_USBOTG_SHIFT
   Definitions
      At line 1790 in file MKL46Z4.s



ARM Macro Assembler    Page 151 Alphabetic symbol ordering
Absolute symbols

   Uses
      None
Comment: SIM_SCGC4_USBOTG_SHIFT unused
SIM_SCGC5 40048038

Symbol: SIM_SCGC5
   Definitions
      At line 1712 in file MKL46Z4.s
   Uses
      At line 595 in file lab12_ASM.s
      At line 648 in file lab12_ASM.s

SIM_SCGC5_LPTMR_MASK 00000001

Symbol: SIM_SCGC5_LPTMR_MASK
   Definitions
      At line 1829 in file MKL46Z4.s
   Uses
      None
Comment: SIM_SCGC5_LPTMR_MASK unused
SIM_SCGC5_LPTMR_SHIFT 00000000

Symbol: SIM_SCGC5_LPTMR_SHIFT
   Definitions
      At line 1830 in file MKL46Z4.s
   Uses
      None
Comment: SIM_SCGC5_LPTMR_SHIFT unused
SIM_SCGC5_OFFSET 00001038

Symbol: SIM_SCGC5_OFFSET
   Definitions
      At line 1696 in file MKL46Z4.s
   Uses
      At line 1712 in file MKL46Z4.s
Comment: SIM_SCGC5_OFFSET used once
SIM_SCGC5_PORTA_MASK 00000200

Symbol: SIM_SCGC5_PORTA_MASK
   Definitions
      At line 1825 in file MKL46Z4.s
   Uses
      At line 649 in file lab12_ASM.s
Comment: SIM_SCGC5_PORTA_MASK used once
SIM_SCGC5_PORTA_SHIFT 00000009

Symbol: SIM_SCGC5_PORTA_SHIFT
   Definitions
      At line 1826 in file MKL46Z4.s
   Uses
      None
Comment: SIM_SCGC5_PORTA_SHIFT unused
SIM_SCGC5_PORTB_MASK 00000400

Symbol: SIM_SCGC5_PORTB_MASK
   Definitions
      At line 1823 in file MKL46Z4.s
   Uses
      None



ARM Macro Assembler    Page 152 Alphabetic symbol ordering
Absolute symbols

Comment: SIM_SCGC5_PORTB_MASK unused
SIM_SCGC5_PORTB_SHIFT 0000000A

Symbol: SIM_SCGC5_PORTB_SHIFT
   Definitions
      At line 1824 in file MKL46Z4.s
   Uses
      None
Comment: SIM_SCGC5_PORTB_SHIFT unused
SIM_SCGC5_PORTC_MASK 00000800

Symbol: SIM_SCGC5_PORTC_MASK
   Definitions
      At line 1821 in file MKL46Z4.s
   Uses
      None
Comment: SIM_SCGC5_PORTC_MASK unused
SIM_SCGC5_PORTC_SHIFT 0000000B

Symbol: SIM_SCGC5_PORTC_SHIFT
   Definitions
      At line 1822 in file MKL46Z4.s
   Uses
      None
Comment: SIM_SCGC5_PORTC_SHIFT unused
SIM_SCGC5_PORTD_MASK 00001000

Symbol: SIM_SCGC5_PORTD_MASK
   Definitions
      At line 1819 in file MKL46Z4.s
   Uses
      At line 596 in file lab12_ASM.s
Comment: SIM_SCGC5_PORTD_MASK used once
SIM_SCGC5_PORTD_SHIFT 0000000C

Symbol: SIM_SCGC5_PORTD_SHIFT
   Definitions
      At line 1820 in file MKL46Z4.s
   Uses
      None
Comment: SIM_SCGC5_PORTD_SHIFT unused
SIM_SCGC5_PORTE_MASK 00002000

Symbol: SIM_SCGC5_PORTE_MASK
   Definitions
      At line 1817 in file MKL46Z4.s
   Uses
      At line 596 in file lab12_ASM.s
Comment: SIM_SCGC5_PORTE_MASK used once
SIM_SCGC5_PORTE_SHIFT 0000000D

Symbol: SIM_SCGC5_PORTE_SHIFT
   Definitions
      At line 1818 in file MKL46Z4.s
   Uses
      None
Comment: SIM_SCGC5_PORTE_SHIFT unused
SIM_SCGC5_TSI_MASK 00000020




ARM Macro Assembler    Page 153 Alphabetic symbol ordering
Absolute symbols

Symbol: SIM_SCGC5_TSI_MASK
   Definitions
      At line 1827 in file MKL46Z4.s
   Uses
      None
Comment: SIM_SCGC5_TSI_MASK unused
SIM_SCGC5_TSI_SHIFT 00000006

Symbol: SIM_SCGC5_TSI_SHIFT
   Definitions
      At line 1828 in file MKL46Z4.s
   Uses
      None
Comment: SIM_SCGC5_TSI_SHIFT unused
SIM_SCGC6 4004803C

Symbol: SIM_SCGC6
   Definitions
      At line 1713 in file MKL46Z4.s
   Uses
      At line 823 in file lab12_ASM.s
Comment: SIM_SCGC6 used once
SIM_SCGC6_ADC0_MASK 08000000

Symbol: SIM_SCGC6_ADC0_MASK
   Definitions
      At line 1851 in file MKL46Z4.s
   Uses
      None
Comment: SIM_SCGC6_ADC0_MASK unused
SIM_SCGC6_ADC0_SHIFT 0000001B

Symbol: SIM_SCGC6_ADC0_SHIFT
   Definitions
      At line 1852 in file MKL46Z4.s
   Uses
      None
Comment: SIM_SCGC6_ADC0_SHIFT unused
SIM_SCGC6_DAC0_MASK 80000000

Symbol: SIM_SCGC6_DAC0_MASK
   Definitions
      At line 1847 in file MKL46Z4.s
   Uses
      None
Comment: SIM_SCGC6_DAC0_MASK unused
SIM_SCGC6_DAC0_SHIFT 0000001F

Symbol: SIM_SCGC6_DAC0_SHIFT
   Definitions
      At line 1848 in file MKL46Z4.s
   Uses
      None
Comment: SIM_SCGC6_DAC0_SHIFT unused
SIM_SCGC6_DMAMUX_MASK 00000002

Symbol: SIM_SCGC6_DMAMUX_MASK
   Definitions
      At line 1861 in file MKL46Z4.s



ARM Macro Assembler    Page 154 Alphabetic symbol ordering
Absolute symbols

   Uses
      None
Comment: SIM_SCGC6_DMAMUX_MASK unused
SIM_SCGC6_DMAMUX_SHIFT 00000001

Symbol: SIM_SCGC6_DMAMUX_SHIFT
   Definitions
      At line 1862 in file MKL46Z4.s
   Uses
      None
Comment: SIM_SCGC6_DMAMUX_SHIFT unused
SIM_SCGC6_FTF_MASK 00000001

Symbol: SIM_SCGC6_FTF_MASK
   Definitions
      At line 1863 in file MKL46Z4.s
   Uses
      None
Comment: SIM_SCGC6_FTF_MASK unused
SIM_SCGC6_FTF_SHIFT 00000000

Symbol: SIM_SCGC6_FTF_SHIFT
   Definitions
      At line 1864 in file MKL46Z4.s
   Uses
      None
Comment: SIM_SCGC6_FTF_SHIFT unused
SIM_SCGC6_OFFSET 0000103C

Symbol: SIM_SCGC6_OFFSET
   Definitions
      At line 1697 in file MKL46Z4.s
   Uses
      At line 1713 in file MKL46Z4.s
Comment: SIM_SCGC6_OFFSET used once
SIM_SCGC6_PIT_MASK 00800000

Symbol: SIM_SCGC6_PIT_MASK
   Definitions
      At line 1859 in file MKL46Z4.s
   Uses
      At line 824 in file lab12_ASM.s
Comment: SIM_SCGC6_PIT_MASK used once
SIM_SCGC6_PIT_SHIFT 00000017

Symbol: SIM_SCGC6_PIT_SHIFT
   Definitions
      At line 1860 in file MKL46Z4.s
   Uses
      None
Comment: SIM_SCGC6_PIT_SHIFT unused
SIM_SCGC6_RTC_MASK 20000000

Symbol: SIM_SCGC6_RTC_MASK
   Definitions
      At line 1849 in file MKL46Z4.s
   Uses
      None
Comment: SIM_SCGC6_RTC_MASK unused



ARM Macro Assembler    Page 155 Alphabetic symbol ordering
Absolute symbols

SIM_SCGC6_RTC_SHIFT 0000001D

Symbol: SIM_SCGC6_RTC_SHIFT
   Definitions
      At line 1850 in file MKL46Z4.s
   Uses
      None
Comment: SIM_SCGC6_RTC_SHIFT unused
SIM_SCGC6_TPM0_MASK 01000000

Symbol: SIM_SCGC6_TPM0_MASK
   Definitions
      At line 1857 in file MKL46Z4.s
   Uses
      None
Comment: SIM_SCGC6_TPM0_MASK unused
SIM_SCGC6_TPM0_SHIFT 00000018

Symbol: SIM_SCGC6_TPM0_SHIFT
   Definitions
      At line 1858 in file MKL46Z4.s
   Uses
      None
Comment: SIM_SCGC6_TPM0_SHIFT unused
SIM_SCGC6_TPM1_MASK 02000000

Symbol: SIM_SCGC6_TPM1_MASK
   Definitions
      At line 1855 in file MKL46Z4.s
   Uses
      None
Comment: SIM_SCGC6_TPM1_MASK unused
SIM_SCGC6_TPM1_SHIFT 00000019

Symbol: SIM_SCGC6_TPM1_SHIFT
   Definitions
      At line 1856 in file MKL46Z4.s
   Uses
      None
Comment: SIM_SCGC6_TPM1_SHIFT unused
SIM_SCGC6_TPM2_MASK 04000000

Symbol: SIM_SCGC6_TPM2_MASK
   Definitions
      At line 1853 in file MKL46Z4.s
   Uses
      None
Comment: SIM_SCGC6_TPM2_MASK unused
SIM_SCGC6_TPM2_SHIFT 0000001A

Symbol: SIM_SCGC6_TPM2_SHIFT
   Definitions
      At line 1854 in file MKL46Z4.s
   Uses
      None
Comment: SIM_SCGC6_TPM2_SHIFT unused
SIM_SCGC7 40048040

Symbol: SIM_SCGC7



ARM Macro Assembler    Page 156 Alphabetic symbol ordering
Absolute symbols

   Definitions
      At line 1714 in file MKL46Z4.s
   Uses
      None
Comment: SIM_SCGC7 unused
SIM_SCGC7_OFFSET 00001040

Symbol: SIM_SCGC7_OFFSET
   Definitions
      At line 1698 in file MKL46Z4.s
   Uses
      At line 1714 in file MKL46Z4.s
Comment: SIM_SCGC7_OFFSET used once
SIM_SDID 40048024

Symbol: SIM_SDID
   Definitions
      At line 1715 in file MKL46Z4.s
   Uses
      None
Comment: SIM_SDID unused
SIM_SDID_OFFSET 00001024

Symbol: SIM_SDID_OFFSET
   Definitions
      At line 1694 in file MKL46Z4.s
   Uses
      At line 1715 in file MKL46Z4.s
Comment: SIM_SDID_OFFSET used once
SIM_SOPT1CFG 40047004

Symbol: SIM_SOPT1CFG
   Definitions
      At line 1716 in file MKL46Z4.s
   Uses
      None
Comment: SIM_SOPT1CFG unused
SIM_SOPT1CFG_OFFSET 00000004

Symbol: SIM_SOPT1CFG_OFFSET
   Definitions
      At line 1689 in file MKL46Z4.s
   Uses
      At line 1716 in file MKL46Z4.s
Comment: SIM_SOPT1CFG_OFFSET used once
SIM_SOPT2 40048004

Symbol: SIM_SOPT2
   Definitions
      At line 1717 in file MKL46Z4.s
   Uses
      At line 628 in file lab12_ASM.s
Comment: SIM_SOPT2 used once
SIM_SOPT2_CLKOUTSEL_MASK 000000E0

Symbol: SIM_SOPT2_CLKOUTSEL_MASK
   Definitions
      At line 1908 in file MKL46Z4.s
   Uses



ARM Macro Assembler    Page 157 Alphabetic symbol ordering
Absolute symbols

      None
Comment: SIM_SOPT2_CLKOUTSEL_MASK unused
SIM_SOPT2_CLKOUTSEL_SHIFT 00000005

Symbol: SIM_SOPT2_CLKOUTSEL_SHIFT
   Definitions
      At line 1909 in file MKL46Z4.s
   Uses
      None
Comment: SIM_SOPT2_CLKOUTSEL_SHIFT unused
SIM_SOPT2_OFFSET 00001004

Symbol: SIM_SOPT2_OFFSET
   Definitions
      At line 1690 in file MKL46Z4.s
   Uses
      At line 1717 in file MKL46Z4.s
Comment: SIM_SOPT2_OFFSET used once
SIM_SOPT2_PLLFLLSEL_MASK 00010000

Symbol: SIM_SOPT2_PLLFLLSEL_MASK
   Definitions
      At line 1906 in file MKL46Z4.s
   Uses
      At line 92 in file lab12_ASM.s
Comment: SIM_SOPT2_PLLFLLSEL_MASK used once
SIM_SOPT2_PLLFLLSEL_SHIFT 00000010

Symbol: SIM_SOPT2_PLLFLLSEL_SHIFT
   Definitions
      At line 1907 in file MKL46Z4.s
   Uses
      None
Comment: SIM_SOPT2_PLLFLLSEL_SHIFT unused
SIM_SOPT2_RTCCLKOUTSEL_MASK 00000010

Symbol: SIM_SOPT2_RTCCLKOUTSEL_MASK
   Definitions
      At line 1910 in file MKL46Z4.s
   Uses
      None
Comment: SIM_SOPT2_RTCCLKOUTSEL_MASK unused
SIM_SOPT2_RTCCLKOUTSEL_SHIFT 00000004

Symbol: SIM_SOPT2_RTCCLKOUTSEL_SHIFT
   Definitions
      At line 1911 in file MKL46Z4.s
   Uses
      None
Comment: SIM_SOPT2_RTCCLKOUTSEL_SHIFT unused
SIM_SOPT2_TPMSRC_MASK 03000000

Symbol: SIM_SOPT2_TPMSRC_MASK
   Definitions
      At line 1902 in file MKL46Z4.s
   Uses
      None
Comment: SIM_SOPT2_TPMSRC_MASK unused
SIM_SOPT2_TPMSRC_SHIFT 00000018



ARM Macro Assembler    Page 158 Alphabetic symbol ordering
Absolute symbols


Symbol: SIM_SOPT2_TPMSRC_SHIFT
   Definitions
      At line 1903 in file MKL46Z4.s
   Uses
      None
Comment: SIM_SOPT2_TPMSRC_SHIFT unused
SIM_SOPT2_UART0SRC_MASK 0C000000

Symbol: SIM_SOPT2_UART0SRC_MASK
   Definitions
      At line 1900 in file MKL46Z4.s
   Uses
      At line 629 in file lab12_ASM.s
Comment: SIM_SOPT2_UART0SRC_MASK used once
SIM_SOPT2_UART0SRC_MCGPLLCLK 04000000

Symbol: SIM_SOPT2_UART0SRC_MCGPLLCLK
   Definitions
      At line 90 in file lab12_ASM.s
   Uses
      At line 92 in file lab12_ASM.s
Comment: SIM_SOPT2_UART0SRC_MCGPLLCLK used once
SIM_SOPT2_UART0SRC_SHIFT 0000001A

Symbol: SIM_SOPT2_UART0SRC_SHIFT
   Definitions
      At line 1901 in file MKL46Z4.s
   Uses
      At line 90 in file lab12_ASM.s
Comment: SIM_SOPT2_UART0SRC_SHIFT used once
SIM_SOPT2_UART0_MCGPLLCLK_DIV2 04010000

Symbol: SIM_SOPT2_UART0_MCGPLLCLK_DIV2
   Definitions
      At line 92 in file lab12_ASM.s
   Uses
      At line 632 in file lab12_ASM.s
Comment: SIM_SOPT2_UART0_MCGPLLCLK_DIV2 used once
SIM_SOPT2_USBSRC_MASK 00040000

Symbol: SIM_SOPT2_USBSRC_MASK
   Definitions
      At line 1904 in file MKL46Z4.s
   Uses
      None
Comment: SIM_SOPT2_USBSRC_MASK unused
SIM_SOPT2_USBSRC_SHIFT 00000012

Symbol: SIM_SOPT2_USBSRC_SHIFT
   Definitions
      At line 1905 in file MKL46Z4.s
   Uses
      None
Comment: SIM_SOPT2_USBSRC_SHIFT unused
SIM_SOPT4 4004800C

Symbol: SIM_SOPT4
   Definitions



ARM Macro Assembler    Page 159 Alphabetic symbol ordering
Absolute symbols

      At line 1718 in file MKL46Z4.s
   Uses
      None
Comment: SIM_SOPT4 unused
SIM_SOPT4_OFFSET 0000100C

Symbol: SIM_SOPT4_OFFSET
   Definitions
      At line 1691 in file MKL46Z4.s
   Uses
      At line 1718 in file MKL46Z4.s
Comment: SIM_SOPT4_OFFSET used once
SIM_SOPT5 40048010

Symbol: SIM_SOPT5
   Definitions
      At line 1719 in file MKL46Z4.s
   Uses
      At line 636 in file lab12_ASM.s
Comment: SIM_SOPT5 used once
SIM_SOPT5_OFFSET 00001010

Symbol: SIM_SOPT5_OFFSET
   Definitions
      At line 1692 in file MKL46Z4.s
   Uses
      At line 1719 in file MKL46Z4.s
Comment: SIM_SOPT5_OFFSET used once
SIM_SOPT5_UART0ODE_MASK 00010000

Symbol: SIM_SOPT5_UART0ODE_MASK
   Definitions
      At line 1941 in file MKL46Z4.s
   Uses
      At line 101 in file lab12_ASM.s
Comment: SIM_SOPT5_UART0ODE_MASK used once
SIM_SOPT5_UART0ODE_SHIFT 00000010

Symbol: SIM_SOPT5_UART0ODE_SHIFT
   Definitions
      At line 1942 in file MKL46Z4.s
   Uses
      None
Comment: SIM_SOPT5_UART0ODE_SHIFT unused
SIM_SOPT5_UART0RXSRC_MASK 00000004

Symbol: SIM_SOPT5_UART0RXSRC_MASK
   Definitions
      At line 1947 in file MKL46Z4.s
   Uses
      At line 101 in file lab12_ASM.s
Comment: SIM_SOPT5_UART0RXSRC_MASK used once
SIM_SOPT5_UART0RXSRC_SHIFT 00000002

Symbol: SIM_SOPT5_UART0RXSRC_SHIFT
   Definitions
      At line 1948 in file MKL46Z4.s
   Uses
      None



ARM Macro Assembler    Page 160 Alphabetic symbol ordering
Absolute symbols

Comment: SIM_SOPT5_UART0RXSRC_SHIFT unused
SIM_SOPT5_UART0TXSRC_MASK 00000003

Symbol: SIM_SOPT5_UART0TXSRC_MASK
   Definitions
      At line 1949 in file MKL46Z4.s
   Uses
      At line 101 in file lab12_ASM.s
Comment: SIM_SOPT5_UART0TXSRC_MASK used once
SIM_SOPT5_UART0TXSRC_SHIFT 00000000

Symbol: SIM_SOPT5_UART0TXSRC_SHIFT
   Definitions
      At line 1950 in file MKL46Z4.s
   Uses
      None
Comment: SIM_SOPT5_UART0TXSRC_SHIFT unused
SIM_SOPT5_UART0_EXTERN_MASK_CLEAR 00010007

Symbol: SIM_SOPT5_UART0_EXTERN_MASK_CLEAR
   Definitions
      At line 101 in file lab12_ASM.s
   Uses
      At line 637 in file lab12_ASM.s
Comment: SIM_SOPT5_UART0_EXTERN_MASK_CLEAR used once
SIM_SOPT5_UART1ODE_MASK 00020000

Symbol: SIM_SOPT5_UART1ODE_MASK
   Definitions
      At line 1939 in file MKL46Z4.s
   Uses
      None
Comment: SIM_SOPT5_UART1ODE_MASK unused
SIM_SOPT5_UART1ODE_SHIFT 00000011

Symbol: SIM_SOPT5_UART1ODE_SHIFT
   Definitions
      At line 1940 in file MKL46Z4.s
   Uses
      None
Comment: SIM_SOPT5_UART1ODE_SHIFT unused
SIM_SOPT5_UART1RXSRC_MASK 00000040

Symbol: SIM_SOPT5_UART1RXSRC_MASK
   Definitions
      At line 1943 in file MKL46Z4.s
   Uses
      None
Comment: SIM_SOPT5_UART1RXSRC_MASK unused
SIM_SOPT5_UART1RXSRC_SHIFT 00000006

Symbol: SIM_SOPT5_UART1RXSRC_SHIFT
   Definitions
      At line 1944 in file MKL46Z4.s
   Uses
      None
Comment: SIM_SOPT5_UART1RXSRC_SHIFT unused
SIM_SOPT5_UART1TXSRC_MASK 00000030




ARM Macro Assembler    Page 161 Alphabetic symbol ordering
Absolute symbols

Symbol: SIM_SOPT5_UART1TXSRC_MASK
   Definitions
      At line 1945 in file MKL46Z4.s
   Uses
      None
Comment: SIM_SOPT5_UART1TXSRC_MASK unused
SIM_SOPT5_UART1TXSRC_SHIFT 00000004

Symbol: SIM_SOPT5_UART1TXSRC_SHIFT
   Definitions
      At line 1946 in file MKL46Z4.s
   Uses
      None
Comment: SIM_SOPT5_UART1TXSRC_SHIFT unused
SIM_SOPT5_UART2ODE_MASK 00040000

Symbol: SIM_SOPT5_UART2ODE_MASK
   Definitions
      At line 1937 in file MKL46Z4.s
   Uses
      None
Comment: SIM_SOPT5_UART2ODE_MASK unused
SIM_SOPT5_UART2ODE_SHIFT 00000012

Symbol: SIM_SOPT5_UART2ODE_SHIFT
   Definitions
      At line 1938 in file MKL46Z4.s
   Uses
      None
Comment: SIM_SOPT5_UART2ODE_SHIFT unused
SIM_SOPT7 40048018

Symbol: SIM_SOPT7
   Definitions
      At line 1720 in file MKL46Z4.s
   Uses
      None
Comment: SIM_SOPT7 unused
SIM_SOPT7_OFFSET 00001018

Symbol: SIM_SOPT7_OFFSET
   Definitions
      At line 1693 in file MKL46Z4.s
   Uses
      At line 1720 in file MKL46Z4.s
Comment: SIM_SOPT7_OFFSET used once
SIM_SRVCOP 40048104

Symbol: SIM_SRVCOP
   Definitions
      At line 1721 in file MKL46Z4.s
   Uses
      None
Comment: SIM_SRVCOP unused
SIM_SRVCOP_OFFSET 00001104

Symbol: SIM_SRVCOP_OFFSET
   Definitions
      At line 1706 in file MKL46Z4.s



ARM Macro Assembler    Page 162 Alphabetic symbol ordering
Absolute symbols

   Uses
      At line 1721 in file MKL46Z4.s
Comment: SIM_SRVCOP_OFFSET used once
SIM_UIDL 40048060

Symbol: SIM_UIDL
   Definitions
      At line 1722 in file MKL46Z4.s
   Uses
      None
Comment: SIM_UIDL unused
SIM_UIDL_OFFSET 00001060

Symbol: SIM_UIDL_OFFSET
   Definitions
      At line 1704 in file MKL46Z4.s
   Uses
      At line 1722 in file MKL46Z4.s
Comment: SIM_UIDL_OFFSET used once
SIM_UIDMH 40048058

Symbol: SIM_UIDMH
   Definitions
      At line 1723 in file MKL46Z4.s
   Uses
      None
Comment: SIM_UIDMH unused
SIM_UIDMH_OFFSET 00001058

Symbol: SIM_UIDMH_OFFSET
   Definitions
      At line 1702 in file MKL46Z4.s
   Uses
      At line 1723 in file MKL46Z4.s
Comment: SIM_UIDMH_OFFSET used once
SIM_UIDML 4004805C

Symbol: SIM_UIDML
   Definitions
      At line 1724 in file MKL46Z4.s
   Uses
      None
Comment: SIM_UIDML unused
SIM_UIDML_OFFSET 0000105C

Symbol: SIM_UIDML_OFFSET
   Definitions
      At line 1703 in file MKL46Z4.s
   Uses
      At line 1724 in file MKL46Z4.s
Comment: SIM_UIDML_OFFSET used once
SPI0_IPR E000E408

Symbol: SPI0_IPR
   Definitions
      At line 999 in file MKL46Z4.s
   Uses
      None
Comment: SPI0_IPR unused



ARM Macro Assembler    Page 163 Alphabetic symbol ordering
Absolute symbols

SPI0_IRQ 0000000A

Symbol: SPI0_IRQ
   Definitions
      At line 1069 in file MKL46Z4.s
   Uses
      At line 1103 in file MKL46Z4.s
Comment: SPI0_IRQ used once
SPI0_IRQ_MASK 00000400

Symbol: SPI0_IRQ_MASK
   Definitions
      At line 1103 in file MKL46Z4.s
   Uses
      None
Comment: SPI0_IRQ_MASK unused
SPI0_PRI_POS 00000016

Symbol: SPI0_PRI_POS
   Definitions
      At line 1035 in file MKL46Z4.s
   Uses
      None
Comment: SPI0_PRI_POS unused
SPI0_Vector 0000001A

Symbol: SPI0_Vector
   Definitions
      At line 1153 in file MKL46Z4.s
   Uses
      None
Comment: SPI0_Vector unused
SPI1_IPR E000E408

Symbol: SPI1_IPR
   Definitions
      At line 1000 in file MKL46Z4.s
   Uses
      None
Comment: SPI1_IPR unused
SPI1_IRQ 0000000B

Symbol: SPI1_IRQ
   Definitions
      At line 1070 in file MKL46Z4.s
   Uses
      At line 1104 in file MKL46Z4.s
Comment: SPI1_IRQ used once
SPI1_IRQ_MASK 00000800

Symbol: SPI1_IRQ_MASK
   Definitions
      At line 1104 in file MKL46Z4.s
   Uses
      None
Comment: SPI1_IRQ_MASK unused
SPI1_PRI_POS 0000001E

Symbol: SPI1_PRI_POS



ARM Macro Assembler    Page 164 Alphabetic symbol ordering
Absolute symbols

   Definitions
      At line 1036 in file MKL46Z4.s
   Uses
      None
Comment: SPI1_PRI_POS unused
SPI1_Vector 0000001B

Symbol: SPI1_Vector
   Definitions
      At line 1154 in file MKL46Z4.s
   Uses
      None
Comment: SPI1_Vector unused
SVCall_Vector 0000000B

Symbol: SVCall_Vector
   Definitions
      At line 1138 in file MKL46Z4.s
   Uses
      None
Comment: SVCall_Vector unused
SysTick_Vector 0000000F

Symbol: SysTick_Vector
   Definitions
      At line 1142 in file MKL46Z4.s
   Uses
      None
Comment: SysTick_Vector unused
TMP0_IPR E000E410

Symbol: TMP0_IPR
   Definitions
      At line 1006 in file MKL46Z4.s
   Uses
      None
Comment: TMP0_IPR unused
TMP0_IRQ 0000000F

Symbol: TMP0_IRQ
   Definitions
      At line 1076 in file MKL46Z4.s
   Uses
      At line 1110 in file MKL46Z4.s
Comment: TMP0_IRQ used once
TMP0_IRQ_MASK 00008000

Symbol: TMP0_IRQ_MASK
   Definitions
      At line 1110 in file MKL46Z4.s
   Uses
      None
Comment: TMP0_IRQ_MASK unused
TMP0_PRI_POS 0000000E

Symbol: TMP0_PRI_POS
   Definitions
      At line 1042 in file MKL46Z4.s
   Uses



ARM Macro Assembler    Page 165 Alphabetic symbol ordering
Absolute symbols

      None
Comment: TMP0_PRI_POS unused
TMP0_Vector 00000021

Symbol: TMP0_Vector
   Definitions
      At line 1160 in file MKL46Z4.s
   Uses
      None
Comment: TMP0_Vector unused
TPM0_BASE 40038000

Symbol: TPM0_BASE
   Definitions
      At line 2138 in file MKL46Z4.s
   Uses
      At line 2139 in file MKL46Z4.s
      At line 2140 in file MKL46Z4.s
      At line 2141 in file MKL46Z4.s
      At line 2142 in file MKL46Z4.s
      At line 2143 in file MKL46Z4.s
      At line 2144 in file MKL46Z4.s
      At line 2145 in file MKL46Z4.s
      At line 2146 in file MKL46Z4.s
      At line 2147 in file MKL46Z4.s
      At line 2148 in file MKL46Z4.s
      At line 2149 in file MKL46Z4.s
      At line 2150 in file MKL46Z4.s
      At line 2151 in file MKL46Z4.s
      At line 2152 in file MKL46Z4.s
      At line 2153 in file MKL46Z4.s
      At line 2154 in file MKL46Z4.s
      At line 2155 in file MKL46Z4.s

TPM0_C0SC 4003800C

Symbol: TPM0_C0SC
   Definitions
      At line 2142 in file MKL46Z4.s
   Uses
      None
Comment: TPM0_C0SC unused
TPM0_C0V 40038010

Symbol: TPM0_C0V
   Definitions
      At line 2143 in file MKL46Z4.s
   Uses
      None
Comment: TPM0_C0V unused
TPM0_C1SC 40038014

Symbol: TPM0_C1SC
   Definitions
      At line 2144 in file MKL46Z4.s
   Uses
      None
Comment: TPM0_C1SC unused
TPM0_C1V 40038018



ARM Macro Assembler    Page 166 Alphabetic symbol ordering
Absolute symbols


Symbol: TPM0_C1V
   Definitions
      At line 2145 in file MKL46Z4.s
   Uses
      None
Comment: TPM0_C1V unused
TPM0_C2SC 4003801C

Symbol: TPM0_C2SC
   Definitions
      At line 2146 in file MKL46Z4.s
   Uses
      None
Comment: TPM0_C2SC unused
TPM0_C2V 40038020

Symbol: TPM0_C2V
   Definitions
      At line 2147 in file MKL46Z4.s
   Uses
      None
Comment: TPM0_C2V unused
TPM0_C3SC 40038024

Symbol: TPM0_C3SC
   Definitions
      At line 2148 in file MKL46Z4.s
   Uses
      None
Comment: TPM0_C3SC unused
TPM0_C3V 40038028

Symbol: TPM0_C3V
   Definitions
      At line 2149 in file MKL46Z4.s
   Uses
      None
Comment: TPM0_C3V unused
TPM0_C4SC 4003802C

Symbol: TPM0_C4SC
   Definitions
      At line 2150 in file MKL46Z4.s
   Uses
      None
Comment: TPM0_C4SC unused
TPM0_C4V 40038030

Symbol: TPM0_C4V
   Definitions
      At line 2151 in file MKL46Z4.s
   Uses
      None
Comment: TPM0_C4V unused
TPM0_C5SC 40038034

Symbol: TPM0_C5SC
   Definitions



ARM Macro Assembler    Page 167 Alphabetic symbol ordering
Absolute symbols

      At line 2152 in file MKL46Z4.s
   Uses
      None
Comment: TPM0_C5SC unused
TPM0_C5V 40038038

Symbol: TPM0_C5V
   Definitions
      At line 2153 in file MKL46Z4.s
   Uses
      None
Comment: TPM0_C5V unused
TPM0_CNT 40038004

Symbol: TPM0_CNT
   Definitions
      At line 2140 in file MKL46Z4.s
   Uses
      None
Comment: TPM0_CNT unused
TPM0_CONF 40038084

Symbol: TPM0_CONF
   Definitions
      At line 2155 in file MKL46Z4.s
   Uses
      None
Comment: TPM0_CONF unused
TPM0_MOD 40038008

Symbol: TPM0_MOD
   Definitions
      At line 2141 in file MKL46Z4.s
   Uses
      None
Comment: TPM0_MOD unused
TPM0_SC 40038000

Symbol: TPM0_SC
   Definitions
      At line 2139 in file MKL46Z4.s
   Uses
      None
Comment: TPM0_SC unused
TPM0_STATUS 40038050

Symbol: TPM0_STATUS
   Definitions
      At line 2154 in file MKL46Z4.s
   Uses
      None
Comment: TPM0_STATUS unused
TPM1_BASE 40039000

Symbol: TPM1_BASE
   Definitions
      At line 2158 in file MKL46Z4.s
   Uses
      At line 2159 in file MKL46Z4.s



ARM Macro Assembler    Page 168 Alphabetic symbol ordering
Absolute symbols

      At line 2160 in file MKL46Z4.s
      At line 2161 in file MKL46Z4.s
      At line 2162 in file MKL46Z4.s
      At line 2163 in file MKL46Z4.s
      At line 2164 in file MKL46Z4.s
      At line 2165 in file MKL46Z4.s
      At line 2166 in file MKL46Z4.s
      At line 2167 in file MKL46Z4.s
      At line 2168 in file MKL46Z4.s
      At line 2169 in file MKL46Z4.s
      At line 2170 in file MKL46Z4.s
      At line 2171 in file MKL46Z4.s
      At line 2172 in file MKL46Z4.s
      At line 2173 in file MKL46Z4.s
      At line 2174 in file MKL46Z4.s
      At line 2175 in file MKL46Z4.s

TPM1_C0SC 4003900C

Symbol: TPM1_C0SC
   Definitions
      At line 2162 in file MKL46Z4.s
   Uses
      None
Comment: TPM1_C0SC unused
TPM1_C0V 40039010

Symbol: TPM1_C0V
   Definitions
      At line 2163 in file MKL46Z4.s
   Uses
      None
Comment: TPM1_C0V unused
TPM1_C1SC 40039014

Symbol: TPM1_C1SC
   Definitions
      At line 2164 in file MKL46Z4.s
   Uses
      None
Comment: TPM1_C1SC unused
TPM1_C1V 40039018

Symbol: TPM1_C1V
   Definitions
      At line 2165 in file MKL46Z4.s
   Uses
      None
Comment: TPM1_C1V unused
TPM1_C2SC 4003901C

Symbol: TPM1_C2SC
   Definitions
      At line 2166 in file MKL46Z4.s
   Uses
      None
Comment: TPM1_C2SC unused
TPM1_C2V 40039020




ARM Macro Assembler    Page 169 Alphabetic symbol ordering
Absolute symbols

Symbol: TPM1_C2V
   Definitions
      At line 2167 in file MKL46Z4.s
   Uses
      None
Comment: TPM1_C2V unused
TPM1_C3SC 40039024

Symbol: TPM1_C3SC
   Definitions
      At line 2168 in file MKL46Z4.s
   Uses
      None
Comment: TPM1_C3SC unused
TPM1_C3V 40039028

Symbol: TPM1_C3V
   Definitions
      At line 2169 in file MKL46Z4.s
   Uses
      None
Comment: TPM1_C3V unused
TPM1_C4SC 4003902C

Symbol: TPM1_C4SC
   Definitions
      At line 2170 in file MKL46Z4.s
   Uses
      None
Comment: TPM1_C4SC unused
TPM1_C4V 40039030

Symbol: TPM1_C4V
   Definitions
      At line 2171 in file MKL46Z4.s
   Uses
      None
Comment: TPM1_C4V unused
TPM1_C5SC 40039034

Symbol: TPM1_C5SC
   Definitions
      At line 2172 in file MKL46Z4.s
   Uses
      None
Comment: TPM1_C5SC unused
TPM1_C5V 40039038

Symbol: TPM1_C5V
   Definitions
      At line 2173 in file MKL46Z4.s
   Uses
      None
Comment: TPM1_C5V unused
TPM1_CNT 40039004

Symbol: TPM1_CNT
   Definitions
      At line 2160 in file MKL46Z4.s



ARM Macro Assembler    Page 170 Alphabetic symbol ordering
Absolute symbols

   Uses
      None
Comment: TPM1_CNT unused
TPM1_CONF 40039084

Symbol: TPM1_CONF
   Definitions
      At line 2175 in file MKL46Z4.s
   Uses
      None
Comment: TPM1_CONF unused
TPM1_IPR E000E410

Symbol: TPM1_IPR
   Definitions
      At line 1007 in file MKL46Z4.s
   Uses
      None
Comment: TPM1_IPR unused
TPM1_IRQ 00000012

Symbol: TPM1_IRQ
   Definitions
      At line 1077 in file MKL46Z4.s
   Uses
      At line 1111 in file MKL46Z4.s
Comment: TPM1_IRQ used once
TPM1_IRQ_MASK 00040000

Symbol: TPM1_IRQ_MASK
   Definitions
      At line 1111 in file MKL46Z4.s
   Uses
      None
Comment: TPM1_IRQ_MASK unused
TPM1_MOD 40039008

Symbol: TPM1_MOD
   Definitions
      At line 2161 in file MKL46Z4.s
   Uses
      None
Comment: TPM1_MOD unused
TPM1_PRI_POS 00000016

Symbol: TPM1_PRI_POS
   Definitions
      At line 1043 in file MKL46Z4.s
   Uses
      None
Comment: TPM1_PRI_POS unused
TPM1_SC 40039000

Symbol: TPM1_SC
   Definitions
      At line 2159 in file MKL46Z4.s
   Uses
      None
Comment: TPM1_SC unused



ARM Macro Assembler    Page 171 Alphabetic symbol ordering
Absolute symbols

TPM1_STATUS 40039050

Symbol: TPM1_STATUS
   Definitions
      At line 2174 in file MKL46Z4.s
   Uses
      None
Comment: TPM1_STATUS unused
TPM1_Vector 00000022

Symbol: TPM1_Vector
   Definitions
      At line 1161 in file MKL46Z4.s
   Uses
      None
Comment: TPM1_Vector unused
TPM2_BASE 4003A000

Symbol: TPM2_BASE
   Definitions
      At line 2178 in file MKL46Z4.s
   Uses
      At line 2179 in file MKL46Z4.s
      At line 2180 in file MKL46Z4.s
      At line 2181 in file MKL46Z4.s
      At line 2182 in file MKL46Z4.s
      At line 2183 in file MKL46Z4.s
      At line 2184 in file MKL46Z4.s
      At line 2185 in file MKL46Z4.s
      At line 2186 in file MKL46Z4.s
      At line 2187 in file MKL46Z4.s
      At line 2188 in file MKL46Z4.s
      At line 2189 in file MKL46Z4.s
      At line 2190 in file MKL46Z4.s
      At line 2191 in file MKL46Z4.s
      At line 2192 in file MKL46Z4.s
      At line 2193 in file MKL46Z4.s
      At line 2194 in file MKL46Z4.s
      At line 2195 in file MKL46Z4.s

TPM2_C0SC 4003A00C

Symbol: TPM2_C0SC
   Definitions
      At line 2182 in file MKL46Z4.s
   Uses
      None
Comment: TPM2_C0SC unused
TPM2_C0V 4003A010

Symbol: TPM2_C0V
   Definitions
      At line 2183 in file MKL46Z4.s
   Uses
      None
Comment: TPM2_C0V unused
TPM2_C1SC 4003A014

Symbol: TPM2_C1SC



ARM Macro Assembler    Page 172 Alphabetic symbol ordering
Absolute symbols

   Definitions
      At line 2184 in file MKL46Z4.s
   Uses
      None
Comment: TPM2_C1SC unused
TPM2_C1V 4003A018

Symbol: TPM2_C1V
   Definitions
      At line 2185 in file MKL46Z4.s
   Uses
      None
Comment: TPM2_C1V unused
TPM2_C2SC 4003A01C

Symbol: TPM2_C2SC
   Definitions
      At line 2186 in file MKL46Z4.s
   Uses
      None
Comment: TPM2_C2SC unused
TPM2_C2V 4003A020

Symbol: TPM2_C2V
   Definitions
      At line 2187 in file MKL46Z4.s
   Uses
      None
Comment: TPM2_C2V unused
TPM2_C3SC 4003A024

Symbol: TPM2_C3SC
   Definitions
      At line 2188 in file MKL46Z4.s
   Uses
      None
Comment: TPM2_C3SC unused
TPM2_C3V 4003A028

Symbol: TPM2_C3V
   Definitions
      At line 2189 in file MKL46Z4.s
   Uses
      None
Comment: TPM2_C3V unused
TPM2_C4SC 4003A02C

Symbol: TPM2_C4SC
   Definitions
      At line 2190 in file MKL46Z4.s
   Uses
      None
Comment: TPM2_C4SC unused
TPM2_C4V 4003A030

Symbol: TPM2_C4V
   Definitions
      At line 2191 in file MKL46Z4.s
   Uses



ARM Macro Assembler    Page 173 Alphabetic symbol ordering
Absolute symbols

      None
Comment: TPM2_C4V unused
TPM2_C5SC 4003A034

Symbol: TPM2_C5SC
   Definitions
      At line 2192 in file MKL46Z4.s
   Uses
      None
Comment: TPM2_C5SC unused
TPM2_C5V 4003A038

Symbol: TPM2_C5V
   Definitions
      At line 2193 in file MKL46Z4.s
   Uses
      None
Comment: TPM2_C5V unused
TPM2_CNT 4003A004

Symbol: TPM2_CNT
   Definitions
      At line 2180 in file MKL46Z4.s
   Uses
      None
Comment: TPM2_CNT unused
TPM2_CONF 4003A084

Symbol: TPM2_CONF
   Definitions
      At line 2195 in file MKL46Z4.s
   Uses
      None
Comment: TPM2_CONF unused
TPM2_IPR E000E410

Symbol: TPM2_IPR
   Definitions
      At line 1008 in file MKL46Z4.s
   Uses
      None
Comment: TPM2_IPR unused
TPM2_IRQ 00000013

Symbol: TPM2_IRQ
   Definitions
      At line 1078 in file MKL46Z4.s
   Uses
      At line 1112 in file MKL46Z4.s
Comment: TPM2_IRQ used once
TPM2_IRQ_MASK 00080000

Symbol: TPM2_IRQ_MASK
   Definitions
      At line 1112 in file MKL46Z4.s
   Uses
      None
Comment: TPM2_IRQ_MASK unused
TPM2_MOD 4003A008



ARM Macro Assembler    Page 174 Alphabetic symbol ordering
Absolute symbols


Symbol: TPM2_MOD
   Definitions
      At line 2181 in file MKL46Z4.s
   Uses
      None
Comment: TPM2_MOD unused
TPM2_PRI_POS 0000001E

Symbol: TPM2_PRI_POS
   Definitions
      At line 1044 in file MKL46Z4.s
   Uses
      None
Comment: TPM2_PRI_POS unused
TPM2_SC 4003A000

Symbol: TPM2_SC
   Definitions
      At line 2179 in file MKL46Z4.s
   Uses
      None
Comment: TPM2_SC unused
TPM2_STATUS 4003A050

Symbol: TPM2_STATUS
   Definitions
      At line 2194 in file MKL46Z4.s
   Uses
      None
Comment: TPM2_STATUS unused
TPM2_Vector 00000023

Symbol: TPM2_Vector
   Definitions
      At line 1162 in file MKL46Z4.s
   Uses
      None
Comment: TPM2_Vector unused
TPM_C0SC_OFFSET 0000000C

Symbol: TPM_C0SC_OFFSET
   Definitions
      At line 1956 in file MKL46Z4.s
   Uses
      At line 2142 in file MKL46Z4.s
      At line 2162 in file MKL46Z4.s
      At line 2182 in file MKL46Z4.s

TPM_C0V_OFFSET 00000010

Symbol: TPM_C0V_OFFSET
   Definitions
      At line 1957 in file MKL46Z4.s
   Uses
      At line 2143 in file MKL46Z4.s
      At line 2163 in file MKL46Z4.s
      At line 2183 in file MKL46Z4.s




ARM Macro Assembler    Page 175 Alphabetic symbol ordering
Absolute symbols

TPM_C1SC_OFFSET 00000014

Symbol: TPM_C1SC_OFFSET
   Definitions
      At line 1958 in file MKL46Z4.s
   Uses
      At line 2144 in file MKL46Z4.s
      At line 2164 in file MKL46Z4.s
      At line 2184 in file MKL46Z4.s

TPM_C1V_OFFSET 00000018

Symbol: TPM_C1V_OFFSET
   Definitions
      At line 1959 in file MKL46Z4.s
   Uses
      At line 2145 in file MKL46Z4.s
      At line 2165 in file MKL46Z4.s
      At line 2185 in file MKL46Z4.s

TPM_C2SC_OFFSET 0000001C

Symbol: TPM_C2SC_OFFSET
   Definitions
      At line 1960 in file MKL46Z4.s
   Uses
      At line 2146 in file MKL46Z4.s
      At line 2166 in file MKL46Z4.s
      At line 2186 in file MKL46Z4.s

TPM_C2V_OFFSET 00000020

Symbol: TPM_C2V_OFFSET
   Definitions
      At line 1961 in file MKL46Z4.s
   Uses
      At line 2147 in file MKL46Z4.s
      At line 2167 in file MKL46Z4.s
      At line 2187 in file MKL46Z4.s

TPM_C3SC_OFFSET 00000024

Symbol: TPM_C3SC_OFFSET
   Definitions
      At line 1962 in file MKL46Z4.s
   Uses
      At line 2148 in file MKL46Z4.s
      At line 2168 in file MKL46Z4.s
      At line 2188 in file MKL46Z4.s

TPM_C3V_OFFSET 00000028

Symbol: TPM_C3V_OFFSET
   Definitions
      At line 1963 in file MKL46Z4.s
   Uses
      At line 2149 in file MKL46Z4.s
      At line 2169 in file MKL46Z4.s
      At line 2189 in file MKL46Z4.s



ARM Macro Assembler    Page 176 Alphabetic symbol ordering
Absolute symbols


TPM_C4SC_OFFSET 0000002C

Symbol: TPM_C4SC_OFFSET
   Definitions
      At line 1964 in file MKL46Z4.s
   Uses
      At line 2150 in file MKL46Z4.s
      At line 2170 in file MKL46Z4.s
      At line 2190 in file MKL46Z4.s

TPM_C4V_OFFSET 00000030

Symbol: TPM_C4V_OFFSET
   Definitions
      At line 1965 in file MKL46Z4.s
   Uses
      At line 2151 in file MKL46Z4.s
      At line 2171 in file MKL46Z4.s
      At line 2191 in file MKL46Z4.s

TPM_C5SC_OFFSET 00000034

Symbol: TPM_C5SC_OFFSET
   Definitions
      At line 1966 in file MKL46Z4.s
   Uses
      At line 2152 in file MKL46Z4.s
      At line 2172 in file MKL46Z4.s
      At line 2192 in file MKL46Z4.s

TPM_C5V_OFFSET 00000038

Symbol: TPM_C5V_OFFSET
   Definitions
      At line 1967 in file MKL46Z4.s
   Uses
      At line 2153 in file MKL46Z4.s
      At line 2173 in file MKL46Z4.s
      At line 2193 in file MKL46Z4.s

TPM_CNT_OFFSET 00000004

Symbol: TPM_CNT_OFFSET
   Definitions
      At line 1954 in file MKL46Z4.s
   Uses
      At line 2140 in file MKL46Z4.s
      At line 2160 in file MKL46Z4.s
      At line 2180 in file MKL46Z4.s

TPM_CONF_CROT_MASK 00040000

Symbol: TPM_CONF_CROT_MASK
   Definitions
      At line 2062 in file MKL46Z4.s
   Uses
      None
Comment: TPM_CONF_CROT_MASK unused



ARM Macro Assembler    Page 177 Alphabetic symbol ordering
Absolute symbols

TPM_CONF_CROT_SHIFT 00000012

Symbol: TPM_CONF_CROT_SHIFT
   Definitions
      At line 2063 in file MKL46Z4.s
   Uses
      None
Comment: TPM_CONF_CROT_SHIFT unused
TPM_CONF_CSOO_MASK 00020000

Symbol: TPM_CONF_CSOO_MASK
   Definitions
      At line 2064 in file MKL46Z4.s
   Uses
      None
Comment: TPM_CONF_CSOO_MASK unused
TPM_CONF_CSOO_SHIFT 00000011

Symbol: TPM_CONF_CSOO_SHIFT
   Definitions
      At line 2065 in file MKL46Z4.s
   Uses
      None
Comment: TPM_CONF_CSOO_SHIFT unused
TPM_CONF_CSOT_MASK 00010000

Symbol: TPM_CONF_CSOT_MASK
   Definitions
      At line 2066 in file MKL46Z4.s
   Uses
      None
Comment: TPM_CONF_CSOT_MASK unused
TPM_CONF_CSOT_SHIFT 00000010

Symbol: TPM_CONF_CSOT_SHIFT
   Definitions
      At line 2067 in file MKL46Z4.s
   Uses
      None
Comment: TPM_CONF_CSOT_SHIFT unused
TPM_CONF_DBGMODE_MASK 000000C0

Symbol: TPM_CONF_DBGMODE_MASK
   Definitions
      At line 2070 in file MKL46Z4.s
   Uses
      None
Comment: TPM_CONF_DBGMODE_MASK unused
TPM_CONF_DBGMODE_SHIFT 00000006

Symbol: TPM_CONF_DBGMODE_SHIFT
   Definitions
      At line 2071 in file MKL46Z4.s
   Uses
      None
Comment: TPM_CONF_DBGMODE_SHIFT unused
TPM_CONF_DOZEEN_MASK 00000020

Symbol: TPM_CONF_DOZEEN_MASK



ARM Macro Assembler    Page 178 Alphabetic symbol ordering
Absolute symbols

   Definitions
      At line 2072 in file MKL46Z4.s
   Uses
      None
Comment: TPM_CONF_DOZEEN_MASK unused
TPM_CONF_DOZEEN_SHIFT 00000005

Symbol: TPM_CONF_DOZEEN_SHIFT
   Definitions
      At line 2073 in file MKL46Z4.s
   Uses
      None
Comment: TPM_CONF_DOZEEN_SHIFT unused
TPM_CONF_GTBEEN_MASK 00000200

Symbol: TPM_CONF_GTBEEN_MASK
   Definitions
      At line 2068 in file MKL46Z4.s
   Uses
      None
Comment: TPM_CONF_GTBEEN_MASK unused
TPM_CONF_GTBEEN_SHIFT 00000009

Symbol: TPM_CONF_GTBEEN_SHIFT
   Definitions
      At line 2069 in file MKL46Z4.s
   Uses
      None
Comment: TPM_CONF_GTBEEN_SHIFT unused
TPM_CONF_OFFSET 00000084

Symbol: TPM_CONF_OFFSET
   Definitions
      At line 1969 in file MKL46Z4.s
   Uses
      At line 2155 in file MKL46Z4.s
      At line 2175 in file MKL46Z4.s
      At line 2195 in file MKL46Z4.s

TPM_CONF_TRGSEL_MASK 0F000000

Symbol: TPM_CONF_TRGSEL_MASK
   Definitions
      At line 2060 in file MKL46Z4.s
   Uses
      None
Comment: TPM_CONF_TRGSEL_MASK unused
TPM_CONF_TRGSEL_SHIFT 00000018

Symbol: TPM_CONF_TRGSEL_SHIFT
   Definitions
      At line 2061 in file MKL46Z4.s
   Uses
      None
Comment: TPM_CONF_TRGSEL_SHIFT unused
TPM_CnSC_CDMA_MASK 00000001

Symbol: TPM_CnSC_CDMA_MASK
   Definitions



ARM Macro Assembler    Page 179 Alphabetic symbol ordering
Absolute symbols

      At line 2010 in file MKL46Z4.s
   Uses
      None
Comment: TPM_CnSC_CDMA_MASK unused
TPM_CnSC_CDMA_SHIFT 00000000

Symbol: TPM_CnSC_CDMA_SHIFT
   Definitions
      At line 2011 in file MKL46Z4.s
   Uses
      None
Comment: TPM_CnSC_CDMA_SHIFT unused
TPM_CnSC_CHF_MASK 00000080

Symbol: TPM_CnSC_CHF_MASK
   Definitions
      At line 1998 in file MKL46Z4.s
   Uses
      None
Comment: TPM_CnSC_CHF_MASK unused
TPM_CnSC_CHF_SHIFT 00000007

Symbol: TPM_CnSC_CHF_SHIFT
   Definitions
      At line 1999 in file MKL46Z4.s
   Uses
      None
Comment: TPM_CnSC_CHF_SHIFT unused
TPM_CnSC_CHIE_MASK 00000040

Symbol: TPM_CnSC_CHIE_MASK
   Definitions
      At line 2000 in file MKL46Z4.s
   Uses
      None
Comment: TPM_CnSC_CHIE_MASK unused
TPM_CnSC_CHIE_SHIFT 00000006

Symbol: TPM_CnSC_CHIE_SHIFT
   Definitions
      At line 2001 in file MKL46Z4.s
   Uses
      None
Comment: TPM_CnSC_CHIE_SHIFT unused
TPM_CnSC_ELSA_MASK 00000004

Symbol: TPM_CnSC_ELSA_MASK
   Definitions
      At line 2008 in file MKL46Z4.s
   Uses
      None
Comment: TPM_CnSC_ELSA_MASK unused
TPM_CnSC_ELSA_SHIFT 00000002

Symbol: TPM_CnSC_ELSA_SHIFT
   Definitions
      At line 2009 in file MKL46Z4.s
   Uses
      None



ARM Macro Assembler    Page 180 Alphabetic symbol ordering
Absolute symbols

Comment: TPM_CnSC_ELSA_SHIFT unused
TPM_CnSC_ELSB_MASK 00000008

Symbol: TPM_CnSC_ELSB_MASK
   Definitions
      At line 2006 in file MKL46Z4.s
   Uses
      None
Comment: TPM_CnSC_ELSB_MASK unused
TPM_CnSC_ELSB_SHIFT 00000003

Symbol: TPM_CnSC_ELSB_SHIFT
   Definitions
      At line 2007 in file MKL46Z4.s
   Uses
      None
Comment: TPM_CnSC_ELSB_SHIFT unused
TPM_CnSC_MSA_MASK 00000010

Symbol: TPM_CnSC_MSA_MASK
   Definitions
      At line 2004 in file MKL46Z4.s
   Uses
      None
Comment: TPM_CnSC_MSA_MASK unused
TPM_CnSC_MSA_SHIFT 00000004

Symbol: TPM_CnSC_MSA_SHIFT
   Definitions
      At line 2005 in file MKL46Z4.s
   Uses
      None
Comment: TPM_CnSC_MSA_SHIFT unused
TPM_CnSC_MSB_MASK 00000020

Symbol: TPM_CnSC_MSB_MASK
   Definitions
      At line 2002 in file MKL46Z4.s
   Uses
      None
Comment: TPM_CnSC_MSB_MASK unused
TPM_CnSC_MSB_SHIFT 00000005

Symbol: TPM_CnSC_MSB_SHIFT
   Definitions
      At line 2003 in file MKL46Z4.s
   Uses
      None
Comment: TPM_CnSC_MSB_SHIFT unused
TPM_CnV_VAL_MASK 0000FFFF

Symbol: TPM_CnV_VAL_MASK
   Definitions
      At line 2016 in file MKL46Z4.s
   Uses
      None
Comment: TPM_CnV_VAL_MASK unused
TPM_CnV_VAL_SHIFT 00000000




ARM Macro Assembler    Page 181 Alphabetic symbol ordering
Absolute symbols

Symbol: TPM_CnV_VAL_SHIFT
   Definitions
      At line 2017 in file MKL46Z4.s
   Uses
      None
Comment: TPM_CnV_VAL_SHIFT unused
TPM_MOD_MOD_MASK 0000FFFF

Symbol: TPM_MOD_MOD_MASK
   Definitions
      At line 2078 in file MKL46Z4.s
   Uses
      None
Comment: TPM_MOD_MOD_MASK unused
TPM_MOD_MOD_SHIFT 0000FFFF

Symbol: TPM_MOD_MOD_SHIFT
   Definitions
      At line 2079 in file MKL46Z4.s
   Uses
      None
Comment: TPM_MOD_MOD_SHIFT unused
TPM_MOD_OFFSET 00000008

Symbol: TPM_MOD_OFFSET
   Definitions
      At line 1955 in file MKL46Z4.s
   Uses
      At line 2141 in file MKL46Z4.s
      At line 2161 in file MKL46Z4.s
      At line 2181 in file MKL46Z4.s

TPM_SC_CMOD_MASK 00000018

Symbol: TPM_SC_CMOD_MASK
   Definitions
      At line 2107 in file MKL46Z4.s
   Uses
      None
Comment: TPM_SC_CMOD_MASK unused
TPM_SC_CMOD_SHIFT 00000003

Symbol: TPM_SC_CMOD_SHIFT
   Definitions
      At line 2108 in file MKL46Z4.s
   Uses
      None
Comment: TPM_SC_CMOD_SHIFT unused
TPM_SC_CPWMS_MASK 00000020

Symbol: TPM_SC_CPWMS_MASK
   Definitions
      At line 2105 in file MKL46Z4.s
   Uses
      None
Comment: TPM_SC_CPWMS_MASK unused
TPM_SC_CPWMS_SHIFT 00000005

Symbol: TPM_SC_CPWMS_SHIFT



ARM Macro Assembler    Page 182 Alphabetic symbol ordering
Absolute symbols

   Definitions
      At line 2106 in file MKL46Z4.s
   Uses
      None
Comment: TPM_SC_CPWMS_SHIFT unused
TPM_SC_DMA_MASK 00000100

Symbol: TPM_SC_DMA_MASK
   Definitions
      At line 2099 in file MKL46Z4.s
   Uses
      None
Comment: TPM_SC_DMA_MASK unused
TPM_SC_DMA_SHIFT 00000008

Symbol: TPM_SC_DMA_SHIFT
   Definitions
      At line 2100 in file MKL46Z4.s
   Uses
      None
Comment: TPM_SC_DMA_SHIFT unused
TPM_SC_OFFSET 00000000

Symbol: TPM_SC_OFFSET
   Definitions
      At line 1953 in file MKL46Z4.s
   Uses
      At line 2139 in file MKL46Z4.s
      At line 2159 in file MKL46Z4.s
      At line 2179 in file MKL46Z4.s

TPM_SC_PS_MASK 00000007

Symbol: TPM_SC_PS_MASK
   Definitions
      At line 2109 in file MKL46Z4.s
   Uses
      None
Comment: TPM_SC_PS_MASK unused
TPM_SC_PS_SHIFT 00000000

Symbol: TPM_SC_PS_SHIFT
   Definitions
      At line 2110 in file MKL46Z4.s
   Uses
      None
Comment: TPM_SC_PS_SHIFT unused
TPM_SC_TOF_MASK 00000080

Symbol: TPM_SC_TOF_MASK
   Definitions
      At line 2101 in file MKL46Z4.s
   Uses
      None
Comment: TPM_SC_TOF_MASK unused
TPM_SC_TOF_SHIFT 00000007

Symbol: TPM_SC_TOF_SHIFT
   Definitions



ARM Macro Assembler    Page 183 Alphabetic symbol ordering
Absolute symbols

      At line 2102 in file MKL46Z4.s
   Uses
      None
Comment: TPM_SC_TOF_SHIFT unused
TPM_SC_TOIE_MASK 00000040

Symbol: TPM_SC_TOIE_MASK
   Definitions
      At line 2103 in file MKL46Z4.s
   Uses
      None
Comment: TPM_SC_TOIE_MASK unused
TPM_SC_TOIE_SHIFT 00000006

Symbol: TPM_SC_TOIE_SHIFT
   Definitions
      At line 2104 in file MKL46Z4.s
   Uses
      None
Comment: TPM_SC_TOIE_SHIFT unused
TPM_STATUS_CH0F_MASK 00000001

Symbol: TPM_STATUS_CH0F_MASK
   Definitions
      At line 2134 in file MKL46Z4.s
   Uses
      None
Comment: TPM_STATUS_CH0F_MASK unused
TPM_STATUS_CH0F_SHIFT 00000000

Symbol: TPM_STATUS_CH0F_SHIFT
   Definitions
      At line 2135 in file MKL46Z4.s
   Uses
      None
Comment: TPM_STATUS_CH0F_SHIFT unused
TPM_STATUS_CH1F_MASK 00000002

Symbol: TPM_STATUS_CH1F_MASK
   Definitions
      At line 2132 in file MKL46Z4.s
   Uses
      None
Comment: TPM_STATUS_CH1F_MASK unused
TPM_STATUS_CH1F_SHIFT 00000001

Symbol: TPM_STATUS_CH1F_SHIFT
   Definitions
      At line 2133 in file MKL46Z4.s
   Uses
      None
Comment: TPM_STATUS_CH1F_SHIFT unused
TPM_STATUS_CH2F_MASK 00000004

Symbol: TPM_STATUS_CH2F_MASK
   Definitions
      At line 2130 in file MKL46Z4.s
   Uses
      None



ARM Macro Assembler    Page 184 Alphabetic symbol ordering
Absolute symbols

Comment: TPM_STATUS_CH2F_MASK unused
TPM_STATUS_CH2F_SHIFT 00000002

Symbol: TPM_STATUS_CH2F_SHIFT
   Definitions
      At line 2131 in file MKL46Z4.s
   Uses
      None
Comment: TPM_STATUS_CH2F_SHIFT unused
TPM_STATUS_CH3F_MASK 00000008

Symbol: TPM_STATUS_CH3F_MASK
   Definitions
      At line 2128 in file MKL46Z4.s
   Uses
      None
Comment: TPM_STATUS_CH3F_MASK unused
TPM_STATUS_CH3F_SHIFT 00000003

Symbol: TPM_STATUS_CH3F_SHIFT
   Definitions
      At line 2129 in file MKL46Z4.s
   Uses
      None
Comment: TPM_STATUS_CH3F_SHIFT unused
TPM_STATUS_CH4F_MASK 00000010

Symbol: TPM_STATUS_CH4F_MASK
   Definitions
      At line 2126 in file MKL46Z4.s
   Uses
      None
Comment: TPM_STATUS_CH4F_MASK unused
TPM_STATUS_CH4F_SHIFT 00000004

Symbol: TPM_STATUS_CH4F_SHIFT
   Definitions
      At line 2127 in file MKL46Z4.s
   Uses
      None
Comment: TPM_STATUS_CH4F_SHIFT unused
TPM_STATUS_CH5F_MASK 00000020

Symbol: TPM_STATUS_CH5F_MASK
   Definitions
      At line 2124 in file MKL46Z4.s
   Uses
      None
Comment: TPM_STATUS_CH5F_MASK unused
TPM_STATUS_CH5F_SHIFT 00000005

Symbol: TPM_STATUS_CH5F_SHIFT
   Definitions
      At line 2125 in file MKL46Z4.s
   Uses
      None
Comment: TPM_STATUS_CH5F_SHIFT unused
TPM_STATUS_OFFSET 00000050




ARM Macro Assembler    Page 185 Alphabetic symbol ordering
Absolute symbols

Symbol: TPM_STATUS_OFFSET
   Definitions
      At line 1968 in file MKL46Z4.s
   Uses
      At line 2154 in file MKL46Z4.s
      At line 2174 in file MKL46Z4.s
      At line 2194 in file MKL46Z4.s

TPM_STATUS_TOF_MASK 00000100

Symbol: TPM_STATUS_TOF_MASK
   Definitions
      At line 2122 in file MKL46Z4.s
   Uses
      None
Comment: TPM_STATUS_TOF_MASK unused
TPM_STATUS_TOF_SHIFT 00000008

Symbol: TPM_STATUS_TOF_SHIFT
   Definitions
      At line 2123 in file MKL46Z4.s
   Uses
      None
Comment: TPM_STATUS_TOF_SHIFT unused
TSI0_IPR E000E418

Symbol: TSI0_IPR
   Definitions
      At line 1015 in file MKL46Z4.s
   Uses
      None
Comment: TSI0_IPR unused
TSI0_IRQ 0000001A

Symbol: TSI0_IRQ
   Definitions
      At line 1085 in file MKL46Z4.s
   Uses
      At line 1119 in file MKL46Z4.s
Comment: TSI0_IRQ used once
TSI0_IRQ_MASK 04000000

Symbol: TSI0_IRQ_MASK
   Definitions
      At line 1119 in file MKL46Z4.s
   Uses
      None
Comment: TSI0_IRQ_MASK unused
TSI0_PRI_POS 00000016

Symbol: TSI0_PRI_POS
   Definitions
      At line 1051 in file MKL46Z4.s
   Uses
      None
Comment: TSI0_PRI_POS unused
TSI0_Vector 0000002A

Symbol: TSI0_Vector



ARM Macro Assembler    Page 186 Alphabetic symbol ordering
Absolute symbols

   Definitions
      At line 1169 in file MKL46Z4.s
   Uses
      None
Comment: TSI0_Vector unused
UART0_BASE 4006A000

Symbol: UART0_BASE
   Definitions
      At line 2198 in file MKL46Z4.s
   Uses
      At line 2211 in file MKL46Z4.s
      At line 2212 in file MKL46Z4.s
      At line 2213 in file MKL46Z4.s
      At line 2214 in file MKL46Z4.s
      At line 2215 in file MKL46Z4.s
      At line 2216 in file MKL46Z4.s
      At line 2217 in file MKL46Z4.s
      At line 2218 in file MKL46Z4.s
      At line 2219 in file MKL46Z4.s
      At line 2220 in file MKL46Z4.s
      At line 2221 in file MKL46Z4.s
      At line 2222 in file MKL46Z4.s
      At line 663 in file lab12_ASM.s
      At line 742 in file lab12_ASM.s
      At line 756 in file lab12_ASM.s

UART0_BDH 4006A000

Symbol: UART0_BDH
   Definitions
      At line 2211 in file MKL46Z4.s
   Uses
      None
Comment: UART0_BDH unused
UART0_BDH_9600 00000001

Symbol: UART0_BDH_9600
   Definitions
      At line 112 in file lab12_ASM.s
   Uses
      At line 669 in file lab12_ASM.s
Comment: UART0_BDH_9600 used once
UART0_BDH_LBKDIE_MASK 00000080

Symbol: UART0_BDH_LBKDIE_MASK
   Definitions
      At line 2229 in file MKL46Z4.s
   Uses
      None
Comment: UART0_BDH_LBKDIE_MASK unused
UART0_BDH_LBKDIE_SHIFT 00000007

Symbol: UART0_BDH_LBKDIE_SHIFT
   Definitions
      At line 2230 in file MKL46Z4.s
   Uses
      None
Comment: UART0_BDH_LBKDIE_SHIFT unused



ARM Macro Assembler    Page 187 Alphabetic symbol ordering
Absolute symbols

UART0_BDH_OFFSET 00000000

Symbol: UART0_BDH_OFFSET
   Definitions
      At line 2199 in file MKL46Z4.s
   Uses
      At line 2211 in file MKL46Z4.s
      At line 670 in file lab12_ASM.s

UART0_BDH_RXEDGIE_MASK 00000040

Symbol: UART0_BDH_RXEDGIE_MASK
   Definitions
      At line 2231 in file MKL46Z4.s
   Uses
      None
Comment: UART0_BDH_RXEDGIE_MASK unused
UART0_BDH_RXEDGIE_SHIFT 00000006

Symbol: UART0_BDH_RXEDGIE_SHIFT
   Definitions
      At line 2232 in file MKL46Z4.s
   Uses
      None
Comment: UART0_BDH_RXEDGIE_SHIFT unused
UART0_BDH_SBNS_MASK 00000020

Symbol: UART0_BDH_SBNS_MASK
   Definitions
      At line 2233 in file MKL46Z4.s
   Uses
      None
Comment: UART0_BDH_SBNS_MASK unused
UART0_BDH_SBNS_SHIFT 00000005

Symbol: UART0_BDH_SBNS_SHIFT
   Definitions
      At line 2234 in file MKL46Z4.s
   Uses
      None
Comment: UART0_BDH_SBNS_SHIFT unused
UART0_BDH_SBR_MASK 0000001F

Symbol: UART0_BDH_SBR_MASK
   Definitions
      At line 2235 in file MKL46Z4.s
   Uses
      None
Comment: UART0_BDH_SBR_MASK unused
UART0_BDH_SBR_SHIFT 00000000

Symbol: UART0_BDH_SBR_SHIFT
   Definitions
      At line 2236 in file MKL46Z4.s
   Uses
      None
Comment: UART0_BDH_SBR_SHIFT unused
UART0_BDL 4006A001




ARM Macro Assembler    Page 188 Alphabetic symbol ordering
Absolute symbols

Symbol: UART0_BDL
   Definitions
      At line 2212 in file MKL46Z4.s
   Uses
      None
Comment: UART0_BDL unused
UART0_BDL_9600 00000038

Symbol: UART0_BDL_9600
   Definitions
      At line 120 in file lab12_ASM.s
   Uses
      At line 671 in file lab12_ASM.s
Comment: UART0_BDL_9600 used once
UART0_BDL_OFFSET 00000001

Symbol: UART0_BDL_OFFSET
   Definitions
      At line 2200 in file MKL46Z4.s
   Uses
      At line 2212 in file MKL46Z4.s
      At line 672 in file lab12_ASM.s

UART0_BDL_SBR_MASK 000000FF

Symbol: UART0_BDL_SBR_MASK
   Definitions
      At line 2240 in file MKL46Z4.s
   Uses
      None
Comment: UART0_BDL_SBR_MASK unused
UART0_BDL_SBR_SHIFT 00000000

Symbol: UART0_BDL_SBR_SHIFT
   Definitions
      At line 2241 in file MKL46Z4.s
   Uses
      None
Comment: UART0_BDL_SBR_SHIFT unused
UART0_C1 4006A002

Symbol: UART0_C1
   Definitions
      At line 2213 in file MKL46Z4.s
   Uses
      None
Comment: UART0_C1 unused
UART0_C1_8N1 00000000

Symbol: UART0_C1_8N1
   Definitions
      At line 132 in file lab12_ASM.s
   Uses
      At line 673 in file lab12_ASM.s
Comment: UART0_C1_8N1 used once
UART0_C1_DOZEEN_MASK 00000040

Symbol: UART0_C1_DOZEEN_MASK
   Definitions



ARM Macro Assembler    Page 189 Alphabetic symbol ordering
Absolute symbols

      At line 2254 in file MKL46Z4.s
   Uses
      None
Comment: UART0_C1_DOZEEN_MASK unused
UART0_C1_DOZEEN_SHIFT 00000006

Symbol: UART0_C1_DOZEEN_SHIFT
   Definitions
      At line 2255 in file MKL46Z4.s
   Uses
      None
Comment: UART0_C1_DOZEEN_SHIFT unused
UART0_C1_ILT_MASK 00000004

Symbol: UART0_C1_ILT_MASK
   Definitions
      At line 2262 in file MKL46Z4.s
   Uses
      None
Comment: UART0_C1_ILT_MASK unused
UART0_C1_ILT_SHIFT 00000002

Symbol: UART0_C1_ILT_SHIFT
   Definitions
      At line 2263 in file MKL46Z4.s
   Uses
      None
Comment: UART0_C1_ILT_SHIFT unused
UART0_C1_LOOPS_MASK 00000080

Symbol: UART0_C1_LOOPS_MASK
   Definitions
      At line 2252 in file MKL46Z4.s
   Uses
      None
Comment: UART0_C1_LOOPS_MASK unused
UART0_C1_LOOPS_SHIFT 00000007

Symbol: UART0_C1_LOOPS_SHIFT
   Definitions
      At line 2253 in file MKL46Z4.s
   Uses
      None
Comment: UART0_C1_LOOPS_SHIFT unused
UART0_C1_M_MASK 00000010

Symbol: UART0_C1_M_MASK
   Definitions
      At line 2258 in file MKL46Z4.s
   Uses
      None
Comment: UART0_C1_M_MASK unused
UART0_C1_M_SHIFT 00000004

Symbol: UART0_C1_M_SHIFT
   Definitions
      At line 2259 in file MKL46Z4.s
   Uses
      None



ARM Macro Assembler    Page 190 Alphabetic symbol ordering
Absolute symbols

Comment: UART0_C1_M_SHIFT unused
UART0_C1_OFFSET 00000002

Symbol: UART0_C1_OFFSET
   Definitions
      At line 2201 in file MKL46Z4.s
   Uses
      At line 2213 in file MKL46Z4.s
      At line 674 in file lab12_ASM.s

UART0_C1_PE_MASK 00000002

Symbol: UART0_C1_PE_MASK
   Definitions
      At line 2264 in file MKL46Z4.s
   Uses
      None
Comment: UART0_C1_PE_MASK unused
UART0_C1_PE_SHIFT 00000001

Symbol: UART0_C1_PE_SHIFT
   Definitions
      At line 2265 in file MKL46Z4.s
   Uses
      None
Comment: UART0_C1_PE_SHIFT unused
UART0_C1_PT_MASK 00000001

Symbol: UART0_C1_PT_MASK
   Definitions
      At line 2266 in file MKL46Z4.s
   Uses
      None
Comment: UART0_C1_PT_MASK unused
UART0_C1_PT_SHIFT 00000000

Symbol: UART0_C1_PT_SHIFT
   Definitions
      At line 2267 in file MKL46Z4.s
   Uses
      None
Comment: UART0_C1_PT_SHIFT unused
UART0_C1_RSRC_MASK 00000020

Symbol: UART0_C1_RSRC_MASK
   Definitions
      At line 2256 in file MKL46Z4.s
   Uses
      None
Comment: UART0_C1_RSRC_MASK unused
UART0_C1_RSRC_SHIFT 00000005

Symbol: UART0_C1_RSRC_SHIFT
   Definitions
      At line 2257 in file MKL46Z4.s
   Uses
      None
Comment: UART0_C1_RSRC_SHIFT unused
UART0_C1_WAKE_MASK 00000008



ARM Macro Assembler    Page 191 Alphabetic symbol ordering
Absolute symbols


Symbol: UART0_C1_WAKE_MASK
   Definitions
      At line 2260 in file MKL46Z4.s
   Uses
      None
Comment: UART0_C1_WAKE_MASK unused
UART0_C1_WAKE_SHIFT 00000003

Symbol: UART0_C1_WAKE_SHIFT
   Definitions
      At line 2261 in file MKL46Z4.s
   Uses
      None
Comment: UART0_C1_WAKE_SHIFT unused
UART0_C2 4006A003

Symbol: UART0_C2
   Definitions
      At line 2214 in file MKL46Z4.s
   Uses
      None
Comment: UART0_C2 unused
UART0_C2_ILIE_MASK 00000010

Symbol: UART0_C2_ILIE_MASK
   Definitions
      At line 2284 in file MKL46Z4.s
   Uses
      None
Comment: UART0_C2_ILIE_MASK unused
UART0_C2_ILIE_SHIFT 00000004

Symbol: UART0_C2_ILIE_SHIFT
   Definitions
      At line 2285 in file MKL46Z4.s
   Uses
      None
Comment: UART0_C2_ILIE_SHIFT unused
UART0_C2_OFFSET 00000003

Symbol: UART0_C2_OFFSET
   Definitions
      At line 2202 in file MKL46Z4.s
   Uses
      At line 2214 in file MKL46Z4.s
      At line 665 in file lab12_ASM.s
      At line 667 in file lab12_ASM.s
      At line 688 in file lab12_ASM.s
      At line 744 in file lab12_ASM.s
      At line 757 in file lab12_ASM.s
      At line 775 in file lab12_ASM.s

UART0_C2_RE_MASK 00000004

Symbol: UART0_C2_RE_MASK
   Definitions
      At line 2288 in file MKL46Z4.s
   Uses



ARM Macro Assembler    Page 192 Alphabetic symbol ordering
Absolute symbols

      At line 143 in file lab12_ASM.s
Comment: UART0_C2_RE_MASK used once
UART0_C2_RE_SHIFT 00000002

Symbol: UART0_C2_RE_SHIFT
   Definitions
      At line 2289 in file MKL46Z4.s
   Uses
      None
Comment: UART0_C2_RE_SHIFT unused
UART0_C2_RIE_MASK 00000020

Symbol: UART0_C2_RIE_MASK
   Definitions
      At line 2282 in file MKL46Z4.s
   Uses
      At line 144 in file lab12_ASM.s
Comment: UART0_C2_RIE_MASK used once
UART0_C2_RIE_SHIFT 00000005

Symbol: UART0_C2_RIE_SHIFT
   Definitions
      At line 2283 in file MKL46Z4.s
   Uses
      None
Comment: UART0_C2_RIE_SHIFT unused
UART0_C2_RWU_MASK 00000002

Symbol: UART0_C2_RWU_MASK
   Definitions
      At line 2290 in file MKL46Z4.s
   Uses
      None
Comment: UART0_C2_RWU_MASK unused
UART0_C2_RWU_SHIFT 00000001

Symbol: UART0_C2_RWU_SHIFT
   Definitions
      At line 2291 in file MKL46Z4.s
   Uses
      None
Comment: UART0_C2_RWU_SHIFT unused
UART0_C2_SBK_MASK 00000001

Symbol: UART0_C2_SBK_MASK
   Definitions
      At line 2292 in file MKL46Z4.s
   Uses
      None
Comment: UART0_C2_SBK_MASK unused
UART0_C2_SBK_SHIFT 00000000

Symbol: UART0_C2_SBK_SHIFT
   Definitions
      At line 2293 in file MKL46Z4.s
   Uses
      None
Comment: UART0_C2_SBK_SHIFT unused
UART0_C2_TCIE_MASK 00000040



ARM Macro Assembler    Page 193 Alphabetic symbol ordering
Absolute symbols


Symbol: UART0_C2_TCIE_MASK
   Definitions
      At line 2280 in file MKL46Z4.s
   Uses
      None
Comment: UART0_C2_TCIE_MASK unused
UART0_C2_TCIE_SHIFT 00000006

Symbol: UART0_C2_TCIE_SHIFT
   Definitions
      At line 2281 in file MKL46Z4.s
   Uses
      None
Comment: UART0_C2_TCIE_SHIFT unused
UART0_C2_TE_MASK 00000008

Symbol: UART0_C2_TE_MASK
   Definitions
      At line 2286 in file MKL46Z4.s
   Uses
      At line 143 in file lab12_ASM.s
Comment: UART0_C2_TE_MASK used once
UART0_C2_TE_SHIFT 00000003

Symbol: UART0_C2_TE_SHIFT
   Definitions
      At line 2287 in file MKL46Z4.s
   Uses
      None
Comment: UART0_C2_TE_SHIFT unused
UART0_C2_TIE_MASK 00000080

Symbol: UART0_C2_TIE_MASK
   Definitions
      At line 2278 in file MKL46Z4.s
   Uses
      At line 145 in file lab12_ASM.s
Comment: UART0_C2_TIE_MASK used once
UART0_C2_TIE_SHIFT 00000007

Symbol: UART0_C2_TIE_SHIFT
   Definitions
      At line 2279 in file MKL46Z4.s
   Uses
      None
Comment: UART0_C2_TIE_SHIFT unused
UART0_C2_TI_RI 000000AC

Symbol: UART0_C2_TI_RI
   Definitions
      At line 145 in file lab12_ASM.s
   Uses
      At line 743 in file lab12_ASM.s
      At line 758 in file lab12_ASM.s

UART0_C2_T_R 0000000C

Symbol: UART0_C2_T_R



ARM Macro Assembler    Page 194 Alphabetic symbol ordering
Absolute symbols

   Definitions
      At line 143 in file lab12_ASM.s
   Uses
      At line 144 in file lab12_ASM.s
      At line 664 in file lab12_ASM.s

UART0_C2_T_RI 0000002C

Symbol: UART0_C2_T_RI
   Definitions
      At line 144 in file lab12_ASM.s
   Uses
      At line 145 in file lab12_ASM.s
      At line 687 in file lab12_ASM.s
      At line 774 in file lab12_ASM.s

UART0_C3 4006A006

Symbol: UART0_C3
   Definitions
      At line 2217 in file MKL46Z4.s
   Uses
      None
Comment: UART0_C3 unused
UART0_C3_FEIE_MASK 00000002

Symbol: UART0_C3_FEIE_MASK
   Definitions
      At line 2317 in file MKL46Z4.s
   Uses
      None
Comment: UART0_C3_FEIE_MASK unused
UART0_C3_FEIE_SHIFT 00000001

Symbol: UART0_C3_FEIE_SHIFT
   Definitions
      At line 2318 in file MKL46Z4.s
   Uses
      None
Comment: UART0_C3_FEIE_SHIFT unused
UART0_C3_NEIE_MASK 00000004

Symbol: UART0_C3_NEIE_MASK
   Definitions
      At line 2315 in file MKL46Z4.s
   Uses
      None
Comment: UART0_C3_NEIE_MASK unused
UART0_C3_NEIE_SHIFT 00000002

Symbol: UART0_C3_NEIE_SHIFT
   Definitions
      At line 2316 in file MKL46Z4.s
   Uses
      None
Comment: UART0_C3_NEIE_SHIFT unused
UART0_C3_NO_TXINV 00000000

Symbol: UART0_C3_NO_TXINV



ARM Macro Assembler    Page 195 Alphabetic symbol ordering
Absolute symbols

   Definitions
      At line 159 in file lab12_ASM.s
   Uses
      At line 675 in file lab12_ASM.s
Comment: UART0_C3_NO_TXINV used once
UART0_C3_OFFSET 00000006

Symbol: UART0_C3_OFFSET
   Definitions
      At line 2205 in file MKL46Z4.s
   Uses
      At line 2217 in file MKL46Z4.s
      At line 676 in file lab12_ASM.s

UART0_C3_ORIE_MASK 00000008

Symbol: UART0_C3_ORIE_MASK
   Definitions
      At line 2313 in file MKL46Z4.s
   Uses
      None
Comment: UART0_C3_ORIE_MASK unused
UART0_C3_ORIE_SHIFT 00000003

Symbol: UART0_C3_ORIE_SHIFT
   Definitions
      At line 2314 in file MKL46Z4.s
   Uses
      None
Comment: UART0_C3_ORIE_SHIFT unused
UART0_C3_PEIE_MASK 00000001

Symbol: UART0_C3_PEIE_MASK
   Definitions
      At line 2319 in file MKL46Z4.s
   Uses
      None
Comment: UART0_C3_PEIE_MASK unused
UART0_C3_PEIE_SHIFT 00000000

Symbol: UART0_C3_PEIE_SHIFT
   Definitions
      At line 2320 in file MKL46Z4.s
   Uses
      None
Comment: UART0_C3_PEIE_SHIFT unused
UART0_C3_R8T9_MASK 00000080

Symbol: UART0_C3_R8T9_MASK
   Definitions
      At line 2305 in file MKL46Z4.s
   Uses
      None
Comment: UART0_C3_R8T9_MASK unused
UART0_C3_R8T9_SHIFT 00000007

Symbol: UART0_C3_R8T9_SHIFT
   Definitions
      At line 2306 in file MKL46Z4.s



ARM Macro Assembler    Page 196 Alphabetic symbol ordering
Absolute symbols

   Uses
      None
Comment: UART0_C3_R8T9_SHIFT unused
UART0_C3_R9T8_MASK 00000040

Symbol: UART0_C3_R9T8_MASK
   Definitions
      At line 2307 in file MKL46Z4.s
   Uses
      None
Comment: UART0_C3_R9T8_MASK unused
UART0_C3_R9T8_SHIFT 00000006

Symbol: UART0_C3_R9T8_SHIFT
   Definitions
      At line 2308 in file MKL46Z4.s
   Uses
      None
Comment: UART0_C3_R9T8_SHIFT unused
UART0_C3_TXDIR_MASK 00000020

Symbol: UART0_C3_TXDIR_MASK
   Definitions
      At line 2309 in file MKL46Z4.s
   Uses
      None
Comment: UART0_C3_TXDIR_MASK unused
UART0_C3_TXDIR_SHIFT 00000005

Symbol: UART0_C3_TXDIR_SHIFT
   Definitions
      At line 2310 in file MKL46Z4.s
   Uses
      None
Comment: UART0_C3_TXDIR_SHIFT unused
UART0_C3_TXINV_MASK 00000010

Symbol: UART0_C3_TXINV_MASK
   Definitions
      At line 2311 in file MKL46Z4.s
   Uses
      None
Comment: UART0_C3_TXINV_MASK unused
UART0_C3_TXINV_SHIFT 00000004

Symbol: UART0_C3_TXINV_SHIFT
   Definitions
      At line 2312 in file MKL46Z4.s
   Uses
      None
Comment: UART0_C3_TXINV_SHIFT unused
UART0_C4 4006A00A

Symbol: UART0_C4
   Definitions
      At line 2221 in file MKL46Z4.s
   Uses
      None
Comment: UART0_C4 unused



ARM Macro Assembler    Page 197 Alphabetic symbol ordering
Absolute symbols

UART0_C4_M10_MASK 00000020

Symbol: UART0_C4_M10_MASK
   Definitions
      At line 2333 in file MKL46Z4.s
   Uses
      None
Comment: UART0_C4_M10_MASK unused
UART0_C4_M10_SHIFT 00000005

Symbol: UART0_C4_M10_SHIFT
   Definitions
      At line 2334 in file MKL46Z4.s
   Uses
      None
Comment: UART0_C4_M10_SHIFT unused
UART0_C4_MAEN1_MASK 00000080

Symbol: UART0_C4_MAEN1_MASK
   Definitions
      At line 2329 in file MKL46Z4.s
   Uses
      None
Comment: UART0_C4_MAEN1_MASK unused
UART0_C4_MAEN1_SHIFT 00000007

Symbol: UART0_C4_MAEN1_SHIFT
   Definitions
      At line 2330 in file MKL46Z4.s
   Uses
      None
Comment: UART0_C4_MAEN1_SHIFT unused
UART0_C4_MAEN2_MASK 00000040

Symbol: UART0_C4_MAEN2_MASK
   Definitions
      At line 2331 in file MKL46Z4.s
   Uses
      None
Comment: UART0_C4_MAEN2_MASK unused
UART0_C4_MAEN2_SHIFT 00000006

Symbol: UART0_C4_MAEN2_SHIFT
   Definitions
      At line 2332 in file MKL46Z4.s
   Uses
      None
Comment: UART0_C4_MAEN2_SHIFT unused
UART0_C4_NO_MATCH_OSR_16 0000000F

Symbol: UART0_C4_NO_MATCH_OSR_16
   Definitions
      At line 169 in file lab12_ASM.s
   Uses
      At line 677 in file lab12_ASM.s
Comment: UART0_C4_NO_MATCH_OSR_16 used once
UART0_C4_OFFSET 0000000A

Symbol: UART0_C4_OFFSET



ARM Macro Assembler    Page 198 Alphabetic symbol ordering
Absolute symbols

   Definitions
      At line 2209 in file MKL46Z4.s
   Uses
      At line 2221 in file MKL46Z4.s
      At line 678 in file lab12_ASM.s

UART0_C4_OSR_16 0000000F

Symbol: UART0_C4_OSR_16
   Definitions
      At line 168 in file lab12_ASM.s
   Uses
      At line 169 in file lab12_ASM.s
Comment: UART0_C4_OSR_16 used once
UART0_C4_OSR_MASK 0000001F

Symbol: UART0_C4_OSR_MASK
   Definitions
      At line 2335 in file MKL46Z4.s
   Uses
      None
Comment: UART0_C4_OSR_MASK unused
UART0_C4_OSR_SHIFT 00000000

Symbol: UART0_C4_OSR_SHIFT
   Definitions
      At line 2336 in file MKL46Z4.s
   Uses
      None
Comment: UART0_C4_OSR_SHIFT unused
UART0_C5 4006A00B

Symbol: UART0_C5
   Definitions
      At line 2222 in file MKL46Z4.s
   Uses
      None
Comment: UART0_C5 unused
UART0_C5_BOTHEDGE_MASK 00000002

Symbol: UART0_C5_BOTHEDGE_MASK
   Definitions
      At line 2349 in file MKL46Z4.s
   Uses
      None
Comment: UART0_C5_BOTHEDGE_MASK unused
UART0_C5_BOTHEDGE_SHIFT 00000001

Symbol: UART0_C5_BOTHEDGE_SHIFT
   Definitions
      At line 2350 in file MKL46Z4.s
   Uses
      None
Comment: UART0_C5_BOTHEDGE_SHIFT unused
UART0_C5_NO_DMA_SSR_SYNC 00000000

Symbol: UART0_C5_NO_DMA_SSR_SYNC
   Definitions
      At line 178 in file lab12_ASM.s



ARM Macro Assembler    Page 199 Alphabetic symbol ordering
Absolute symbols

   Uses
      At line 680 in file lab12_ASM.s
Comment: UART0_C5_NO_DMA_SSR_SYNC used once
UART0_C5_OFFSET 0000000B

Symbol: UART0_C5_OFFSET
   Definitions
      At line 2210 in file MKL46Z4.s
   Uses
      At line 2222 in file MKL46Z4.s
      At line 681 in file lab12_ASM.s

UART0_C5_RDMAE_MASK 00000020

Symbol: UART0_C5_RDMAE_MASK
   Definitions
      At line 2347 in file MKL46Z4.s
   Uses
      None
Comment: UART0_C5_RDMAE_MASK unused
UART0_C5_RDMAE_SHIFT 00000005

Symbol: UART0_C5_RDMAE_SHIFT
   Definitions
      At line 2348 in file MKL46Z4.s
   Uses
      None
Comment: UART0_C5_RDMAE_SHIFT unused
UART0_C5_RESYNCDIS_MASK 00000001

Symbol: UART0_C5_RESYNCDIS_MASK
   Definitions
      At line 2351 in file MKL46Z4.s
   Uses
      None
Comment: UART0_C5_RESYNCDIS_MASK unused
UART0_C5_RESYNCDIS_SHIFT 00000000

Symbol: UART0_C5_RESYNCDIS_SHIFT
   Definitions
      At line 2352 in file MKL46Z4.s
   Uses
      None
Comment: UART0_C5_RESYNCDIS_SHIFT unused
UART0_C5_TDMAE_MASK 00000080

Symbol: UART0_C5_TDMAE_MASK
   Definitions
      At line 2345 in file MKL46Z4.s
   Uses
      None
Comment: UART0_C5_TDMAE_MASK unused
UART0_C5_TDMAE_SHIFT 00000007

Symbol: UART0_C5_TDMAE_SHIFT
   Definitions
      At line 2346 in file MKL46Z4.s
   Uses
      None



ARM Macro Assembler    Page 200 Alphabetic symbol ordering
Absolute symbols

Comment: UART0_C5_TDMAE_SHIFT unused
UART0_D 4006A007

Symbol: UART0_D
   Definitions
      At line 2218 in file MKL46Z4.s
   Uses
      None
Comment: UART0_D unused
UART0_D_OFFSET 00000007

Symbol: UART0_D_OFFSET
   Definitions
      At line 2206 in file MKL46Z4.s
   Uses
      At line 2218 in file MKL46Z4.s
      At line 770 in file lab12_ASM.s
      At line 783 in file lab12_ASM.s

UART0_D_R0T0_MASK 00000001

Symbol: UART0_D_R0T0_MASK
   Definitions
      At line 2385 in file MKL46Z4.s
   Uses
      None
Comment: UART0_D_R0T0_MASK unused
UART0_D_R0T0_SHIFT 00000000

Symbol: UART0_D_R0T0_SHIFT
   Definitions
      At line 2386 in file MKL46Z4.s
   Uses
      None
Comment: UART0_D_R0T0_SHIFT unused
UART0_D_R1T1_MASK 00000002

Symbol: UART0_D_R1T1_MASK
   Definitions
      At line 2383 in file MKL46Z4.s
   Uses
      None
Comment: UART0_D_R1T1_MASK unused
UART0_D_R1T1_SHIFT 00000001

Symbol: UART0_D_R1T1_SHIFT
   Definitions
      At line 2384 in file MKL46Z4.s
   Uses
      None
Comment: UART0_D_R1T1_SHIFT unused
UART0_D_R2T2_MASK 00000004

Symbol: UART0_D_R2T2_MASK
   Definitions
      At line 2381 in file MKL46Z4.s
   Uses
      None
Comment: UART0_D_R2T2_MASK unused



ARM Macro Assembler    Page 201 Alphabetic symbol ordering
Absolute symbols

UART0_D_R2T2_SHIFT 00000002

Symbol: UART0_D_R2T2_SHIFT
   Definitions
      At line 2382 in file MKL46Z4.s
   Uses
      None
Comment: UART0_D_R2T2_SHIFT unused
UART0_D_R3T3_MASK 00000008

Symbol: UART0_D_R3T3_MASK
   Definitions
      At line 2379 in file MKL46Z4.s
   Uses
      None
Comment: UART0_D_R3T3_MASK unused
UART0_D_R3T3_SHIFT 00000003

Symbol: UART0_D_R3T3_SHIFT
   Definitions
      At line 2380 in file MKL46Z4.s
   Uses
      None
Comment: UART0_D_R3T3_SHIFT unused
UART0_D_R4T4_MASK 00000010

Symbol: UART0_D_R4T4_MASK
   Definitions
      At line 2377 in file MKL46Z4.s
   Uses
      None
Comment: UART0_D_R4T4_MASK unused
UART0_D_R4T4_SHIFT 00000004

Symbol: UART0_D_R4T4_SHIFT
   Definitions
      At line 2378 in file MKL46Z4.s
   Uses
      None
Comment: UART0_D_R4T4_SHIFT unused
UART0_D_R5T5_MASK 00000020

Symbol: UART0_D_R5T5_MASK
   Definitions
      At line 2375 in file MKL46Z4.s
   Uses
      None
Comment: UART0_D_R5T5_MASK unused
UART0_D_R5T5_SHIFT 00000005

Symbol: UART0_D_R5T5_SHIFT
   Definitions
      At line 2376 in file MKL46Z4.s
   Uses
      None
Comment: UART0_D_R5T5_SHIFT unused
UART0_D_R6T6_MASK 00000040

Symbol: UART0_D_R6T6_MASK



ARM Macro Assembler    Page 202 Alphabetic symbol ordering
Absolute symbols

   Definitions
      At line 2373 in file MKL46Z4.s
   Uses
      None
Comment: UART0_D_R6T6_MASK unused
UART0_D_R6T6_SHIFT 00000006

Symbol: UART0_D_R6T6_SHIFT
   Definitions
      At line 2374 in file MKL46Z4.s
   Uses
      None
Comment: UART0_D_R6T6_SHIFT unused
UART0_D_R7T7_MASK 00000080

Symbol: UART0_D_R7T7_MASK
   Definitions
      At line 2371 in file MKL46Z4.s
   Uses
      None
Comment: UART0_D_R7T7_MASK unused
UART0_D_R7T7_SHIFT 00000007

Symbol: UART0_D_R7T7_SHIFT
   Definitions
      At line 2372 in file MKL46Z4.s
   Uses
      None
Comment: UART0_D_R7T7_SHIFT unused
UART0_IPR E000E40C

Symbol: UART0_IPR
   Definitions
      At line 1001 in file MKL46Z4.s
   Uses
      At line 690 in file lab12_ASM.s
Comment: UART0_IPR used once
UART0_IRQ 0000000C

Symbol: UART0_IRQ
   Definitions
      At line 1071 in file MKL46Z4.s
   Uses
      At line 1105 in file MKL46Z4.s
Comment: UART0_IRQ used once
UART0_IRQ_MASK 00001000

Symbol: UART0_IRQ_MASK
   Definitions
      At line 1105 in file MKL46Z4.s
   Uses
      At line 35 in file lab12_ASM.s
      At line 45 in file lab12_ASM.s
      At line 65 in file lab12_ASM.s

UART0_IRQ_PRIORITY 00000003

Symbol: UART0_IRQ_PRIORITY
   Definitions



ARM Macro Assembler    Page 203 Alphabetic symbol ordering
Absolute symbols

      At line 54 in file lab12_ASM.s
   Uses
      At line 56 in file lab12_ASM.s
Comment: UART0_IRQ_PRIORITY used once
UART0_MA1 4006A008

Symbol: UART0_MA1
   Definitions
      At line 2219 in file MKL46Z4.s
   Uses
      None
Comment: UART0_MA1 unused
UART0_MA1_MA_MASK 000000FF

Symbol: UART0_MA1_MA_MASK
   Definitions
      At line 2390 in file MKL46Z4.s
   Uses
      None
Comment: UART0_MA1_MA_MASK unused
UART0_MA1_MA_SHIFT 00000000

Symbol: UART0_MA1_MA_SHIFT
   Definitions
      At line 2391 in file MKL46Z4.s
   Uses
      None
Comment: UART0_MA1_MA_SHIFT unused
UART0_MA1_OFFSET 00000008

Symbol: UART0_MA1_OFFSET
   Definitions
      At line 2207 in file MKL46Z4.s
   Uses
      At line 2219 in file MKL46Z4.s
Comment: UART0_MA1_OFFSET used once
UART0_MA2 4006A009

Symbol: UART0_MA2
   Definitions
      At line 2220 in file MKL46Z4.s
   Uses
      None
Comment: UART0_MA2 unused
UART0_MA2_MA_MASK 000000FF

Symbol: UART0_MA2_MA_MASK
   Definitions
      At line 2395 in file MKL46Z4.s
   Uses
      None
Comment: UART0_MA2_MA_MASK unused
UART0_MA2_MA_SHIFT 00000000

Symbol: UART0_MA2_MA_SHIFT
   Definitions
      At line 2396 in file MKL46Z4.s
   Uses
      None



ARM Macro Assembler    Page 204 Alphabetic symbol ordering
Absolute symbols

Comment: UART0_MA2_MA_SHIFT unused
UART0_MA2_OFFSET 00000009

Symbol: UART0_MA2_OFFSET
   Definitions
      At line 2208 in file MKL46Z4.s
   Uses
      At line 2220 in file MKL46Z4.s
Comment: UART0_MA2_OFFSET used once
UART0_PRI_POS 00000006

Symbol: UART0_PRI_POS
   Definitions
      At line 1037 in file MKL46Z4.s
   Uses
      At line 52 in file lab12_ASM.s
      At line 55 in file lab12_ASM.s
      At line 56 in file lab12_ASM.s

UART0_S1 4006A004

Symbol: UART0_S1
   Definitions
      At line 2215 in file MKL46Z4.s
   Uses
      None
Comment: UART0_S1 unused
UART0_S1_CLEAR_FLAGS 0000001F

Symbol: UART0_S1_CLEAR_FLAGS
   Definitions
      At line 189 in file lab12_ASM.s
   Uses
      At line 682 in file lab12_ASM.s
Comment: UART0_S1_CLEAR_FLAGS used once
UART0_S1_FE_MASK 00000002

Symbol: UART0_S1_FE_MASK
   Definitions
      At line 2419 in file MKL46Z4.s
   Uses
      None
Comment: UART0_S1_FE_MASK unused
UART0_S1_FE_SHIFT 00000001

Symbol: UART0_S1_FE_SHIFT
   Definitions
      At line 2420 in file MKL46Z4.s
   Uses
      None
Comment: UART0_S1_FE_SHIFT unused
UART0_S1_IDLE_MASK 00000010

Symbol: UART0_S1_IDLE_MASK
   Definitions
      At line 2413 in file MKL46Z4.s
   Uses
      None
Comment: UART0_S1_IDLE_MASK unused



ARM Macro Assembler    Page 205 Alphabetic symbol ordering
Absolute symbols

UART0_S1_IDLE_SHIFT 00000004

Symbol: UART0_S1_IDLE_SHIFT
   Definitions
      At line 2414 in file MKL46Z4.s
   Uses
      None
Comment: UART0_S1_IDLE_SHIFT unused
UART0_S1_NF_MASK 00000004

Symbol: UART0_S1_NF_MASK
   Definitions
      At line 2417 in file MKL46Z4.s
   Uses
      None
Comment: UART0_S1_NF_MASK unused
UART0_S1_NF_SHIFT 00000002

Symbol: UART0_S1_NF_SHIFT
   Definitions
      At line 2418 in file MKL46Z4.s
   Uses
      None
Comment: UART0_S1_NF_SHIFT unused
UART0_S1_OFFSET 00000004

Symbol: UART0_S1_OFFSET
   Definitions
      At line 2203 in file MKL46Z4.s
   Uses
      At line 2215 in file MKL46Z4.s
      At line 683 in file lab12_ASM.s
      At line 761 in file lab12_ASM.s

UART0_S1_OR_MASK 00000008

Symbol: UART0_S1_OR_MASK
   Definitions
      At line 2415 in file MKL46Z4.s
   Uses
      None
Comment: UART0_S1_OR_MASK unused
UART0_S1_OR_SHIFT 00000003

Symbol: UART0_S1_OR_SHIFT
   Definitions
      At line 2416 in file MKL46Z4.s
   Uses
      None
Comment: UART0_S1_OR_SHIFT unused
UART0_S1_PF_MASK 00000001

Symbol: UART0_S1_PF_MASK
   Definitions
      At line 2421 in file MKL46Z4.s
   Uses
      None
Comment: UART0_S1_PF_MASK unused
UART0_S1_PF_SHIFT 00000000



ARM Macro Assembler    Page 206 Alphabetic symbol ordering
Absolute symbols


Symbol: UART0_S1_PF_SHIFT
   Definitions
      At line 2422 in file MKL46Z4.s
   Uses
      None
Comment: UART0_S1_PF_SHIFT unused
UART0_S1_RDRF_MASK 00000020

Symbol: UART0_S1_RDRF_MASK
   Definitions
      At line 2411 in file MKL46Z4.s
   Uses
      None
Comment: UART0_S1_RDRF_MASK unused
UART0_S1_RDRF_SHIFT 00000005

Symbol: UART0_S1_RDRF_SHIFT
   Definitions
      At line 2412 in file MKL46Z4.s
   Uses
      None
Comment: UART0_S1_RDRF_SHIFT unused
UART0_S1_TC_MASK 00000040

Symbol: UART0_S1_TC_MASK
   Definitions
      At line 2409 in file MKL46Z4.s
   Uses
      None
Comment: UART0_S1_TC_MASK unused
UART0_S1_TC_SHIFT 00000006

Symbol: UART0_S1_TC_SHIFT
   Definitions
      At line 2410 in file MKL46Z4.s
   Uses
      None
Comment: UART0_S1_TC_SHIFT unused
UART0_S1_TDRE_MASK 00000080

Symbol: UART0_S1_TDRE_MASK
   Definitions
      At line 2407 in file MKL46Z4.s
   Uses
      None
Comment: UART0_S1_TDRE_MASK unused
UART0_S1_TDRE_SHIFT 00000007

Symbol: UART0_S1_TDRE_SHIFT
   Definitions
      At line 2408 in file MKL46Z4.s
   Uses
      None
Comment: UART0_S1_TDRE_SHIFT unused
UART0_S2 4006A005

Symbol: UART0_S2
   Definitions



ARM Macro Assembler    Page 207 Alphabetic symbol ordering
Absolute symbols

      At line 2216 in file MKL46Z4.s
   Uses
      None
Comment: UART0_S2 unused
UART0_S2_BRK13_MASK 00000004

Symbol: UART0_S2_BRK13_MASK
   Definitions
      At line 2443 in file MKL46Z4.s
   Uses
      None
Comment: UART0_S2_BRK13_MASK unused
UART0_S2_BRK13_SHIFT 00000002

Symbol: UART0_S2_BRK13_SHIFT
   Definitions
      At line 2444 in file MKL46Z4.s
   Uses
      None
Comment: UART0_S2_BRK13_SHIFT unused
UART0_S2_LBKDE_MASK 00000002

Symbol: UART0_S2_LBKDE_MASK
   Definitions
      At line 2445 in file MKL46Z4.s
   Uses
      None
Comment: UART0_S2_LBKDE_MASK unused
UART0_S2_LBKDE_SHIFT 00000001

Symbol: UART0_S2_LBKDE_SHIFT
   Definitions
      At line 2446 in file MKL46Z4.s
   Uses
      None
Comment: UART0_S2_LBKDE_SHIFT unused
UART0_S2_LBKDIF_MASK 00000080

Symbol: UART0_S2_LBKDIF_MASK
   Definitions
      At line 2433 in file MKL46Z4.s
   Uses
      None
Comment: UART0_S2_LBKDIF_MASK unused
UART0_S2_LBKDIF_SHIFT 00000007

Symbol: UART0_S2_LBKDIF_SHIFT
   Definitions
      At line 2434 in file MKL46Z4.s
   Uses
      None
Comment: UART0_S2_LBKDIF_SHIFT unused
UART0_S2_MSBF_MASK 00000020

Symbol: UART0_S2_MSBF_MASK
   Definitions
      At line 2437 in file MKL46Z4.s
   Uses
      None



ARM Macro Assembler    Page 208 Alphabetic symbol ordering
Absolute symbols

Comment: UART0_S2_MSBF_MASK unused
UART0_S2_MSBF_SHIFT 00000005

Symbol: UART0_S2_MSBF_SHIFT
   Definitions
      At line 2438 in file MKL46Z4.s
   Uses
      None
Comment: UART0_S2_MSBF_SHIFT unused
UART0_S2_NO_RXINV_BRK10_NO_LBKDETECT_CLEAR_FLAGS 000000C0

Symbol: UART0_S2_NO_RXINV_BRK10_NO_LBKDETECT_CLEAR_FLAGS
   Definitions
      At line 202 in file lab12_ASM.s
   Uses
      At line 684 in file lab12_ASM.s
Comment: UART0_S2_NO_RXINV_BRK10_NO_LBKDETECT_CLEAR_FLAGS used once
UART0_S2_OFFSET 00000005

Symbol: UART0_S2_OFFSET
   Definitions
      At line 2204 in file MKL46Z4.s
   Uses
      At line 2216 in file MKL46Z4.s
      At line 685 in file lab12_ASM.s

UART0_S2_RAF_MASK 00000001

Symbol: UART0_S2_RAF_MASK
   Definitions
      At line 2447 in file MKL46Z4.s
   Uses
      None
Comment: UART0_S2_RAF_MASK unused
UART0_S2_RAF_SHIFT 00000000

Symbol: UART0_S2_RAF_SHIFT
   Definitions
      At line 2448 in file MKL46Z4.s
   Uses
      None
Comment: UART0_S2_RAF_SHIFT unused
UART0_S2_RWUID_MASK 00000008

Symbol: UART0_S2_RWUID_MASK
   Definitions
      At line 2441 in file MKL46Z4.s
   Uses
      None
Comment: UART0_S2_RWUID_MASK unused
UART0_S2_RWUID_SHIFT 00000003

Symbol: UART0_S2_RWUID_SHIFT
   Definitions
      At line 2442 in file MKL46Z4.s
   Uses
      None
Comment: UART0_S2_RWUID_SHIFT unused
UART0_S2_RXEDGIF_MASK 00000040



ARM Macro Assembler    Page 209 Alphabetic symbol ordering
Absolute symbols


Symbol: UART0_S2_RXEDGIF_MASK
   Definitions
      At line 2435 in file MKL46Z4.s
   Uses
      None
Comment: UART0_S2_RXEDGIF_MASK unused
UART0_S2_RXEDGIF_SHIFT 00000006

Symbol: UART0_S2_RXEDGIF_SHIFT
   Definitions
      At line 2436 in file MKL46Z4.s
   Uses
      None
Comment: UART0_S2_RXEDGIF_SHIFT unused
UART0_S2_RXINV_MASK 00000010

Symbol: UART0_S2_RXINV_MASK
   Definitions
      At line 2439 in file MKL46Z4.s
   Uses
      None
Comment: UART0_S2_RXINV_MASK unused
UART0_S2_RXINV_SHIFT 00000004

Symbol: UART0_S2_RXINV_SHIFT
   Definitions
      At line 2440 in file MKL46Z4.s
   Uses
      None
Comment: UART0_S2_RXINV_SHIFT unused
UART0_Vector 0000001C

Symbol: UART0_Vector
   Definitions
      At line 1155 in file MKL46Z4.s
   Uses
      None
Comment: UART0_Vector unused
UART1_BASE 4006B000

Symbol: UART1_BASE
   Definitions
      At line 2462 in file MKL46Z4.s
   Uses
      At line 2463 in file MKL46Z4.s
      At line 2464 in file MKL46Z4.s
      At line 2465 in file MKL46Z4.s
      At line 2466 in file MKL46Z4.s
      At line 2467 in file MKL46Z4.s
      At line 2468 in file MKL46Z4.s
      At line 2469 in file MKL46Z4.s
      At line 2470 in file MKL46Z4.s
      At line 2471 in file MKL46Z4.s

UART1_BDH 4006B000

Symbol: UART1_BDH
   Definitions



ARM Macro Assembler    Page 210 Alphabetic symbol ordering
Absolute symbols

      At line 2463 in file MKL46Z4.s
   Uses
      None
Comment: UART1_BDH unused
UART1_BDL 4006B001

Symbol: UART1_BDL
   Definitions
      At line 2464 in file MKL46Z4.s
   Uses
      None
Comment: UART1_BDL unused
UART1_C1 4006B002

Symbol: UART1_C1
   Definitions
      At line 2465 in file MKL46Z4.s
   Uses
      None
Comment: UART1_C1 unused
UART1_C2 4006B003

Symbol: UART1_C2
   Definitions
      At line 2466 in file MKL46Z4.s
   Uses
      None
Comment: UART1_C2 unused
UART1_C3 4006B006

Symbol: UART1_C3
   Definitions
      At line 2469 in file MKL46Z4.s
   Uses
      None
Comment: UART1_C3 unused
UART1_C4 4006B008

Symbol: UART1_C4
   Definitions
      At line 2471 in file MKL46Z4.s
   Uses
      None
Comment: UART1_C4 unused
UART1_D 4006B007

Symbol: UART1_D
   Definitions
      At line 2470 in file MKL46Z4.s
   Uses
      None
Comment: UART1_D unused
UART1_IPR E000E40C

Symbol: UART1_IPR
   Definitions
      At line 1002 in file MKL46Z4.s
   Uses
      None



ARM Macro Assembler    Page 211 Alphabetic symbol ordering
Absolute symbols

Comment: UART1_IPR unused
UART1_IRQ 0000000D

Symbol: UART1_IRQ
   Definitions
      At line 1072 in file MKL46Z4.s
   Uses
      At line 1106 in file MKL46Z4.s
Comment: UART1_IRQ used once
UART1_IRQ_MASK 00002000

Symbol: UART1_IRQ_MASK
   Definitions
      At line 1106 in file MKL46Z4.s
   Uses
      None
Comment: UART1_IRQ_MASK unused
UART1_PRI_POS 0000000E

Symbol: UART1_PRI_POS
   Definitions
      At line 1038 in file MKL46Z4.s
   Uses
      None
Comment: UART1_PRI_POS unused
UART1_S1 4006B004

Symbol: UART1_S1
   Definitions
      At line 2467 in file MKL46Z4.s
   Uses
      None
Comment: UART1_S1 unused
UART1_S2 4006B005

Symbol: UART1_S2
   Definitions
      At line 2468 in file MKL46Z4.s
   Uses
      None
Comment: UART1_S2 unused
UART1_Vector 0000001D

Symbol: UART1_Vector
   Definitions
      At line 1156 in file MKL46Z4.s
   Uses
      None
Comment: UART1_Vector unused
UART2_BASE 4006C000

Symbol: UART2_BASE
   Definitions
      At line 2474 in file MKL46Z4.s
   Uses
      At line 2475 in file MKL46Z4.s
      At line 2476 in file MKL46Z4.s
      At line 2477 in file MKL46Z4.s
      At line 2478 in file MKL46Z4.s



ARM Macro Assembler    Page 212 Alphabetic symbol ordering
Absolute symbols

      At line 2479 in file MKL46Z4.s
      At line 2480 in file MKL46Z4.s
      At line 2481 in file MKL46Z4.s
      At line 2482 in file MKL46Z4.s
      At line 2483 in file MKL46Z4.s

UART2_BDH 4006C000

Symbol: UART2_BDH
   Definitions
      At line 2475 in file MKL46Z4.s
   Uses
      None
Comment: UART2_BDH unused
UART2_BDL 4006C001

Symbol: UART2_BDL
   Definitions
      At line 2476 in file MKL46Z4.s
   Uses
      None
Comment: UART2_BDL unused
UART2_C1 4006C002

Symbol: UART2_C1
   Definitions
      At line 2477 in file MKL46Z4.s
   Uses
      None
Comment: UART2_C1 unused
UART2_C2 4006C003

Symbol: UART2_C2
   Definitions
      At line 2478 in file MKL46Z4.s
   Uses
      None
Comment: UART2_C2 unused
UART2_C3 4006C006

Symbol: UART2_C3
   Definitions
      At line 2481 in file MKL46Z4.s
   Uses
      None
Comment: UART2_C3 unused
UART2_C4 4006C008

Symbol: UART2_C4
   Definitions
      At line 2483 in file MKL46Z4.s
   Uses
      None
Comment: UART2_C4 unused
UART2_D 4006C007

Symbol: UART2_D
   Definitions
      At line 2482 in file MKL46Z4.s



ARM Macro Assembler    Page 213 Alphabetic symbol ordering
Absolute symbols

   Uses
      None
Comment: UART2_D unused
UART2_IPR E000E40C

Symbol: UART2_IPR
   Definitions
      At line 1003 in file MKL46Z4.s
   Uses
      None
Comment: UART2_IPR unused
UART2_IRQ 0000000E

Symbol: UART2_IRQ
   Definitions
      At line 1073 in file MKL46Z4.s
   Uses
      At line 1107 in file MKL46Z4.s
Comment: UART2_IRQ used once
UART2_IRQ_MASK 00004000

Symbol: UART2_IRQ_MASK
   Definitions
      At line 1107 in file MKL46Z4.s
   Uses
      None
Comment: UART2_IRQ_MASK unused
UART2_PRI_POS 00000016

Symbol: UART2_PRI_POS
   Definitions
      At line 1039 in file MKL46Z4.s
   Uses
      None
Comment: UART2_PRI_POS unused
UART2_S1 4006C004

Symbol: UART2_S1
   Definitions
      At line 2479 in file MKL46Z4.s
   Uses
      None
Comment: UART2_S1 unused
UART2_S2 4006C005

Symbol: UART2_S2
   Definitions
      At line 2480 in file MKL46Z4.s
   Uses
      None
Comment: UART2_S2 unused
UART2_Vector 0000001E

Symbol: UART2_Vector
   Definitions
      At line 1157 in file MKL46Z4.s
   Uses
      None
Comment: UART2_Vector unused



ARM Macro Assembler    Page 214 Alphabetic symbol ordering
Absolute symbols

UART_BDH_LBKDIE_MASK 00000080

Symbol: UART_BDH_LBKDIE_MASK
   Definitions
      At line 2490 in file MKL46Z4.s
   Uses
      None
Comment: UART_BDH_LBKDIE_MASK unused
UART_BDH_LBKDIE_SHIFT 00000007

Symbol: UART_BDH_LBKDIE_SHIFT
   Definitions
      At line 2491 in file MKL46Z4.s
   Uses
      None
Comment: UART_BDH_LBKDIE_SHIFT unused
UART_BDH_OFFSET 00000000

Symbol: UART_BDH_OFFSET
   Definitions
      At line 2451 in file MKL46Z4.s
   Uses
      At line 2463 in file MKL46Z4.s
      At line 2475 in file MKL46Z4.s

UART_BDH_RXEDGIE_MASK 00000040

Symbol: UART_BDH_RXEDGIE_MASK
   Definitions
      At line 2492 in file MKL46Z4.s
   Uses
      None
Comment: UART_BDH_RXEDGIE_MASK unused
UART_BDH_RXEDGIE_SHIFT 00000006

Symbol: UART_BDH_RXEDGIE_SHIFT
   Definitions
      At line 2493 in file MKL46Z4.s
   Uses
      None
Comment: UART_BDH_RXEDGIE_SHIFT unused
UART_BDH_SBNS_MASK 00000020

Symbol: UART_BDH_SBNS_MASK
   Definitions
      At line 2494 in file MKL46Z4.s
   Uses
      None
Comment: UART_BDH_SBNS_MASK unused
UART_BDH_SBNS_SHIFT 00000005

Symbol: UART_BDH_SBNS_SHIFT
   Definitions
      At line 2495 in file MKL46Z4.s
   Uses
      None
Comment: UART_BDH_SBNS_SHIFT unused
UART_BDH_SBR_MASK 0000001F




ARM Macro Assembler    Page 215 Alphabetic symbol ordering
Absolute symbols

Symbol: UART_BDH_SBR_MASK
   Definitions
      At line 2496 in file MKL46Z4.s
   Uses
      None
Comment: UART_BDH_SBR_MASK unused
UART_BDH_SBR_SHIFT 00000000

Symbol: UART_BDH_SBR_SHIFT
   Definitions
      At line 2497 in file MKL46Z4.s
   Uses
      None
Comment: UART_BDH_SBR_SHIFT unused
UART_BDL_OFFSET 00000001

Symbol: UART_BDL_OFFSET
   Definitions
      At line 2452 in file MKL46Z4.s
   Uses
      At line 2464 in file MKL46Z4.s
      At line 2476 in file MKL46Z4.s

UART_BDL_SBR_MASK 000000FF

Symbol: UART_BDL_SBR_MASK
   Definitions
      At line 2501 in file MKL46Z4.s
   Uses
      None
Comment: UART_BDL_SBR_MASK unused
UART_BDL_SBR_SHIFT 00000000

Symbol: UART_BDL_SBR_SHIFT
   Definitions
      At line 2502 in file MKL46Z4.s
   Uses
      None
Comment: UART_BDL_SBR_SHIFT unused
UART_C1_ILT_MASK 00000004

Symbol: UART_C1_ILT_MASK
   Definitions
      At line 2523 in file MKL46Z4.s
   Uses
      None
Comment: UART_C1_ILT_MASK unused
UART_C1_ILT_SHIFT 00000002

Symbol: UART_C1_ILT_SHIFT
   Definitions
      At line 2524 in file MKL46Z4.s
   Uses
      None
Comment: UART_C1_ILT_SHIFT unused
UART_C1_LOOPS_MASK 00000080

Symbol: UART_C1_LOOPS_MASK
   Definitions



ARM Macro Assembler    Page 216 Alphabetic symbol ordering
Absolute symbols

      At line 2513 in file MKL46Z4.s
   Uses
      None
Comment: UART_C1_LOOPS_MASK unused
UART_C1_LOOPS_SHIFT 00000007

Symbol: UART_C1_LOOPS_SHIFT
   Definitions
      At line 2514 in file MKL46Z4.s
   Uses
      None
Comment: UART_C1_LOOPS_SHIFT unused
UART_C1_M_MASK 00000010

Symbol: UART_C1_M_MASK
   Definitions
      At line 2519 in file MKL46Z4.s
   Uses
      None
Comment: UART_C1_M_MASK unused
UART_C1_M_SHIFT 00000004

Symbol: UART_C1_M_SHIFT
   Definitions
      At line 2520 in file MKL46Z4.s
   Uses
      None
Comment: UART_C1_M_SHIFT unused
UART_C1_OFFSET 00000002

Symbol: UART_C1_OFFSET
   Definitions
      At line 2453 in file MKL46Z4.s
   Uses
      At line 2465 in file MKL46Z4.s
      At line 2477 in file MKL46Z4.s

UART_C1_PE_MASK 00000002

Symbol: UART_C1_PE_MASK
   Definitions
      At line 2525 in file MKL46Z4.s
   Uses
      None
Comment: UART_C1_PE_MASK unused
UART_C1_PE_SHIFT 00000001

Symbol: UART_C1_PE_SHIFT
   Definitions
      At line 2526 in file MKL46Z4.s
   Uses
      None
Comment: UART_C1_PE_SHIFT unused
UART_C1_PT_MASK 00000001

Symbol: UART_C1_PT_MASK
   Definitions
      At line 2527 in file MKL46Z4.s
   Uses



ARM Macro Assembler    Page 217 Alphabetic symbol ordering
Absolute symbols

      None
Comment: UART_C1_PT_MASK unused
UART_C1_PT_SHIFT 00000000

Symbol: UART_C1_PT_SHIFT
   Definitions
      At line 2528 in file MKL46Z4.s
   Uses
      None
Comment: UART_C1_PT_SHIFT unused
UART_C1_RSRC_MASK 00000020

Symbol: UART_C1_RSRC_MASK
   Definitions
      At line 2517 in file MKL46Z4.s
   Uses
      None
Comment: UART_C1_RSRC_MASK unused
UART_C1_RSRC_SHIFT 00000005

Symbol: UART_C1_RSRC_SHIFT
   Definitions
      At line 2518 in file MKL46Z4.s
   Uses
      None
Comment: UART_C1_RSRC_SHIFT unused
UART_C1_UARTSWAI_MASK 00000040

Symbol: UART_C1_UARTSWAI_MASK
   Definitions
      At line 2515 in file MKL46Z4.s
   Uses
      None
Comment: UART_C1_UARTSWAI_MASK unused
UART_C1_UARTSWAI_SHIFT 00000006

Symbol: UART_C1_UARTSWAI_SHIFT
   Definitions
      At line 2516 in file MKL46Z4.s
   Uses
      None
Comment: UART_C1_UARTSWAI_SHIFT unused
UART_C1_WAKE_MASK 00000008

Symbol: UART_C1_WAKE_MASK
   Definitions
      At line 2521 in file MKL46Z4.s
   Uses
      None
Comment: UART_C1_WAKE_MASK unused
UART_C1_WAKE_SHIFT 00000003

Symbol: UART_C1_WAKE_SHIFT
   Definitions
      At line 2522 in file MKL46Z4.s
   Uses
      None
Comment: UART_C1_WAKE_SHIFT unused
UART_C2_ILIE_MASK 00000010



ARM Macro Assembler    Page 218 Alphabetic symbol ordering
Absolute symbols


Symbol: UART_C2_ILIE_MASK
   Definitions
      At line 2545 in file MKL46Z4.s
   Uses
      None
Comment: UART_C2_ILIE_MASK unused
UART_C2_ILIE_SHIFT 00000004

Symbol: UART_C2_ILIE_SHIFT
   Definitions
      At line 2546 in file MKL46Z4.s
   Uses
      None
Comment: UART_C2_ILIE_SHIFT unused
UART_C2_OFFSET 00000003

Symbol: UART_C2_OFFSET
   Definitions
      At line 2454 in file MKL46Z4.s
   Uses
      At line 2466 in file MKL46Z4.s
      At line 2478 in file MKL46Z4.s

UART_C2_RE_MASK 00000004

Symbol: UART_C2_RE_MASK
   Definitions
      At line 2549 in file MKL46Z4.s
   Uses
      None
Comment: UART_C2_RE_MASK unused
UART_C2_RE_SHIFT 00000002

Symbol: UART_C2_RE_SHIFT
   Definitions
      At line 2550 in file MKL46Z4.s
   Uses
      None
Comment: UART_C2_RE_SHIFT unused
UART_C2_RIE_MASK 00000020

Symbol: UART_C2_RIE_MASK
   Definitions
      At line 2543 in file MKL46Z4.s
   Uses
      None
Comment: UART_C2_RIE_MASK unused
UART_C2_RIE_SHIFT 00000005

Symbol: UART_C2_RIE_SHIFT
   Definitions
      At line 2544 in file MKL46Z4.s
   Uses
      None
Comment: UART_C2_RIE_SHIFT unused
UART_C2_RWU_MASK 00000002

Symbol: UART_C2_RWU_MASK



ARM Macro Assembler    Page 219 Alphabetic symbol ordering
Absolute symbols

   Definitions
      At line 2551 in file MKL46Z4.s
   Uses
      None
Comment: UART_C2_RWU_MASK unused
UART_C2_RWU_SHIFT 00000001

Symbol: UART_C2_RWU_SHIFT
   Definitions
      At line 2552 in file MKL46Z4.s
   Uses
      None
Comment: UART_C2_RWU_SHIFT unused
UART_C2_SBK_MASK 00000001

Symbol: UART_C2_SBK_MASK
   Definitions
      At line 2553 in file MKL46Z4.s
   Uses
      None
Comment: UART_C2_SBK_MASK unused
UART_C2_SBK_SHIFT 00000000

Symbol: UART_C2_SBK_SHIFT
   Definitions
      At line 2554 in file MKL46Z4.s
   Uses
      None
Comment: UART_C2_SBK_SHIFT unused
UART_C2_TCIE_MASK 00000040

Symbol: UART_C2_TCIE_MASK
   Definitions
      At line 2541 in file MKL46Z4.s
   Uses
      None
Comment: UART_C2_TCIE_MASK unused
UART_C2_TCIE_SHIFT 00000006

Symbol: UART_C2_TCIE_SHIFT
   Definitions
      At line 2542 in file MKL46Z4.s
   Uses
      None
Comment: UART_C2_TCIE_SHIFT unused
UART_C2_TE_MASK 00000008

Symbol: UART_C2_TE_MASK
   Definitions
      At line 2547 in file MKL46Z4.s
   Uses
      None
Comment: UART_C2_TE_MASK unused
UART_C2_TE_SHIFT 00000003

Symbol: UART_C2_TE_SHIFT
   Definitions
      At line 2548 in file MKL46Z4.s
   Uses



ARM Macro Assembler    Page 220 Alphabetic symbol ordering
Absolute symbols

      None
Comment: UART_C2_TE_SHIFT unused
UART_C2_TIE_MASK 00000080

Symbol: UART_C2_TIE_MASK
   Definitions
      At line 2539 in file MKL46Z4.s
   Uses
      None
Comment: UART_C2_TIE_MASK unused
UART_C2_TIE_SHIFT 00000007

Symbol: UART_C2_TIE_SHIFT
   Definitions
      At line 2540 in file MKL46Z4.s
   Uses
      None
Comment: UART_C2_TIE_SHIFT unused
UART_C3_FEIE_MASK 00000002

Symbol: UART_C3_FEIE_MASK
   Definitions
      At line 2577 in file MKL46Z4.s
   Uses
      None
Comment: UART_C3_FEIE_MASK unused
UART_C3_FEIE_SHIFT 00000001

Symbol: UART_C3_FEIE_SHIFT
   Definitions
      At line 2578 in file MKL46Z4.s
   Uses
      None
Comment: UART_C3_FEIE_SHIFT unused
UART_C3_NEIE_MASK 00000004

Symbol: UART_C3_NEIE_MASK
   Definitions
      At line 2575 in file MKL46Z4.s
   Uses
      None
Comment: UART_C3_NEIE_MASK unused
UART_C3_NEIE_SHIFT 00000002

Symbol: UART_C3_NEIE_SHIFT
   Definitions
      At line 2576 in file MKL46Z4.s
   Uses
      None
Comment: UART_C3_NEIE_SHIFT unused
UART_C3_OFFSET 00000006

Symbol: UART_C3_OFFSET
   Definitions
      At line 2457 in file MKL46Z4.s
   Uses
      At line 2469 in file MKL46Z4.s
      At line 2481 in file MKL46Z4.s




ARM Macro Assembler    Page 221 Alphabetic symbol ordering
Absolute symbols

UART_C3_ORIE_MASK 00000008

Symbol: UART_C3_ORIE_MASK
   Definitions
      At line 2573 in file MKL46Z4.s
   Uses
      None
Comment: UART_C3_ORIE_MASK unused
UART_C3_ORIE_SHIFT 00000003

Symbol: UART_C3_ORIE_SHIFT
   Definitions
      At line 2574 in file MKL46Z4.s
   Uses
      None
Comment: UART_C3_ORIE_SHIFT unused
UART_C3_PEIE_MASK 00000001

Symbol: UART_C3_PEIE_MASK
   Definitions
      At line 2579 in file MKL46Z4.s
   Uses
      None
Comment: UART_C3_PEIE_MASK unused
UART_C3_PEIE_SHIFT 00000000

Symbol: UART_C3_PEIE_SHIFT
   Definitions
      At line 2580 in file MKL46Z4.s
   Uses
      None
Comment: UART_C3_PEIE_SHIFT unused
UART_C3_R8_MASK 00000080

Symbol: UART_C3_R8_MASK
   Definitions
      At line 2565 in file MKL46Z4.s
   Uses
      None
Comment: UART_C3_R8_MASK unused
UART_C3_R8_SHIFT 00000007

Symbol: UART_C3_R8_SHIFT
   Definitions
      At line 2566 in file MKL46Z4.s
   Uses
      None
Comment: UART_C3_R8_SHIFT unused
UART_C3_T8_MASK 00000040

Symbol: UART_C3_T8_MASK
   Definitions
      At line 2567 in file MKL46Z4.s
   Uses
      None
Comment: UART_C3_T8_MASK unused
UART_C3_T8_SHIFT 00000006

Symbol: UART_C3_T8_SHIFT



ARM Macro Assembler    Page 222 Alphabetic symbol ordering
Absolute symbols

   Definitions
      At line 2568 in file MKL46Z4.s
   Uses
      None
Comment: UART_C3_T8_SHIFT unused
UART_C3_TXDIR_MASK 00000020

Symbol: UART_C3_TXDIR_MASK
   Definitions
      At line 2569 in file MKL46Z4.s
   Uses
      None
Comment: UART_C3_TXDIR_MASK unused
UART_C3_TXDIR_SHIFT 00000005

Symbol: UART_C3_TXDIR_SHIFT
   Definitions
      At line 2570 in file MKL46Z4.s
   Uses
      None
Comment: UART_C3_TXDIR_SHIFT unused
UART_C3_TXINV_MASK 00000010

Symbol: UART_C3_TXINV_MASK
   Definitions
      At line 2571 in file MKL46Z4.s
   Uses
      None
Comment: UART_C3_TXINV_MASK unused
UART_C3_TXINV_SHIFT 00000004

Symbol: UART_C3_TXINV_SHIFT
   Definitions
      At line 2572 in file MKL46Z4.s
   Uses
      None
Comment: UART_C3_TXINV_SHIFT unused
UART_C4_OFFSET 00000008

Symbol: UART_C4_OFFSET
   Definitions
      At line 2459 in file MKL46Z4.s
   Uses
      At line 2471 in file MKL46Z4.s
      At line 2483 in file MKL46Z4.s

UART_C4_RDMAS_MASK 00000020

Symbol: UART_C4_RDMAS_MASK
   Definitions
      At line 2591 in file MKL46Z4.s
   Uses
      None
Comment: UART_C4_RDMAS_MASK unused
UART_C4_RDMAS_SHIFT 00000005

Symbol: UART_C4_RDMAS_SHIFT
   Definitions
      At line 2592 in file MKL46Z4.s



ARM Macro Assembler    Page 223 Alphabetic symbol ordering
Absolute symbols

   Uses
      None
Comment: UART_C4_RDMAS_SHIFT unused
UART_C4_TDMAS_MASK 00000080

Symbol: UART_C4_TDMAS_MASK
   Definitions
      At line 2589 in file MKL46Z4.s
   Uses
      None
Comment: UART_C4_TDMAS_MASK unused
UART_C4_TDMAS_SHIFT 00000007

Symbol: UART_C4_TDMAS_SHIFT
   Definitions
      At line 2590 in file MKL46Z4.s
   Uses
      None
Comment: UART_C4_TDMAS_SHIFT unused
UART_D_OFFSET 00000007

Symbol: UART_D_OFFSET
   Definitions
      At line 2458 in file MKL46Z4.s
   Uses
      At line 2470 in file MKL46Z4.s
      At line 2482 in file MKL46Z4.s

UART_S1_FE_MASK 00000002

Symbol: UART_S1_FE_MASK
   Definitions
      At line 2615 in file MKL46Z4.s
   Uses
      None
Comment: UART_S1_FE_MASK unused
UART_S1_FE_SHIFT 00000001

Symbol: UART_S1_FE_SHIFT
   Definitions
      At line 2616 in file MKL46Z4.s
   Uses
      None
Comment: UART_S1_FE_SHIFT unused
UART_S1_IDLE_MASK 00000010

Symbol: UART_S1_IDLE_MASK
   Definitions
      At line 2609 in file MKL46Z4.s
   Uses
      None
Comment: UART_S1_IDLE_MASK unused
UART_S1_IDLE_SHIFT 00000004

Symbol: UART_S1_IDLE_SHIFT
   Definitions
      At line 2610 in file MKL46Z4.s
   Uses
      None



ARM Macro Assembler    Page 224 Alphabetic symbol ordering
Absolute symbols

Comment: UART_S1_IDLE_SHIFT unused
UART_S1_NF_MASK 00000004

Symbol: UART_S1_NF_MASK
   Definitions
      At line 2613 in file MKL46Z4.s
   Uses
      None
Comment: UART_S1_NF_MASK unused
UART_S1_NF_SHIFT 00000002

Symbol: UART_S1_NF_SHIFT
   Definitions
      At line 2614 in file MKL46Z4.s
   Uses
      None
Comment: UART_S1_NF_SHIFT unused
UART_S1_OFFSET 00000004

Symbol: UART_S1_OFFSET
   Definitions
      At line 2455 in file MKL46Z4.s
   Uses
      At line 2467 in file MKL46Z4.s
      At line 2479 in file MKL46Z4.s
      At line 778 in file lab12_ASM.s

UART_S1_OR_MASK 00000008

Symbol: UART_S1_OR_MASK
   Definitions
      At line 2611 in file MKL46Z4.s
   Uses
      None
Comment: UART_S1_OR_MASK unused
UART_S1_OR_SHIFT 00000003

Symbol: UART_S1_OR_SHIFT
   Definitions
      At line 2612 in file MKL46Z4.s
   Uses
      None
Comment: UART_S1_OR_SHIFT unused
UART_S1_PF_MASK 00000001

Symbol: UART_S1_PF_MASK
   Definitions
      At line 2617 in file MKL46Z4.s
   Uses
      None
Comment: UART_S1_PF_MASK unused
UART_S1_PF_SHIFT 00000000

Symbol: UART_S1_PF_SHIFT
   Definitions
      At line 2618 in file MKL46Z4.s
   Uses
      None
Comment: UART_S1_PF_SHIFT unused



ARM Macro Assembler    Page 225 Alphabetic symbol ordering
Absolute symbols

UART_S1_RDRF_MASK 00000020

Symbol: UART_S1_RDRF_MASK
   Definitions
      At line 2607 in file MKL46Z4.s
   Uses
      None
Comment: UART_S1_RDRF_MASK unused
UART_S1_RDRF_SHIFT 00000005

Symbol: UART_S1_RDRF_SHIFT
   Definitions
      At line 2608 in file MKL46Z4.s
   Uses
      None
Comment: UART_S1_RDRF_SHIFT unused
UART_S1_TC_MASK 00000040

Symbol: UART_S1_TC_MASK
   Definitions
      At line 2605 in file MKL46Z4.s
   Uses
      None
Comment: UART_S1_TC_MASK unused
UART_S1_TC_SHIFT 00000006

Symbol: UART_S1_TC_SHIFT
   Definitions
      At line 2606 in file MKL46Z4.s
   Uses
      None
Comment: UART_S1_TC_SHIFT unused
UART_S1_TDRE_MASK 00000080

Symbol: UART_S1_TDRE_MASK
   Definitions
      At line 2603 in file MKL46Z4.s
   Uses
      None
Comment: UART_S1_TDRE_MASK unused
UART_S1_TDRE_SHIFT 00000007

Symbol: UART_S1_TDRE_SHIFT
   Definitions
      At line 2604 in file MKL46Z4.s
   Uses
      None
Comment: UART_S1_TDRE_SHIFT unused
UART_S2_BRK13_MASK 00000004

Symbol: UART_S2_BRK13_MASK
   Definitions
      At line 2637 in file MKL46Z4.s
   Uses
      None
Comment: UART_S2_BRK13_MASK unused
UART_S2_BRK13_SHIFT 00000002

Symbol: UART_S2_BRK13_SHIFT



ARM Macro Assembler    Page 226 Alphabetic symbol ordering
Absolute symbols

   Definitions
      At line 2638 in file MKL46Z4.s
   Uses
      None
Comment: UART_S2_BRK13_SHIFT unused
UART_S2_LBKDE_MASK 00000002

Symbol: UART_S2_LBKDE_MASK
   Definitions
      At line 2639 in file MKL46Z4.s
   Uses
      None
Comment: UART_S2_LBKDE_MASK unused
UART_S2_LBKDE_SHIFT 00000001

Symbol: UART_S2_LBKDE_SHIFT
   Definitions
      At line 2640 in file MKL46Z4.s
   Uses
      None
Comment: UART_S2_LBKDE_SHIFT unused
UART_S2_LBKDIF_MASK 00000080

Symbol: UART_S2_LBKDIF_MASK
   Definitions
      At line 2629 in file MKL46Z4.s
   Uses
      None
Comment: UART_S2_LBKDIF_MASK unused
UART_S2_LBKDIF_SHIFT 00000007

Symbol: UART_S2_LBKDIF_SHIFT
   Definitions
      At line 2630 in file MKL46Z4.s
   Uses
      None
Comment: UART_S2_LBKDIF_SHIFT unused
UART_S2_OFFSET 00000005

Symbol: UART_S2_OFFSET
   Definitions
      At line 2456 in file MKL46Z4.s
   Uses
      At line 2468 in file MKL46Z4.s
      At line 2480 in file MKL46Z4.s

UART_S2_RAF_MASK 00000001

Symbol: UART_S2_RAF_MASK
   Definitions
      At line 2641 in file MKL46Z4.s
   Uses
      None
Comment: UART_S2_RAF_MASK unused
UART_S2_RAF_SHIFT 00000000

Symbol: UART_S2_RAF_SHIFT
   Definitions
      At line 2642 in file MKL46Z4.s



ARM Macro Assembler    Page 227 Alphabetic symbol ordering
Absolute symbols

   Uses
      None
Comment: UART_S2_RAF_SHIFT unused
UART_S2_RWUID_MASK 00000008

Symbol: UART_S2_RWUID_MASK
   Definitions
      At line 2635 in file MKL46Z4.s
   Uses
      None
Comment: UART_S2_RWUID_MASK unused
UART_S2_RWUID_SHIFT 00000003

Symbol: UART_S2_RWUID_SHIFT
   Definitions
      At line 2636 in file MKL46Z4.s
   Uses
      None
Comment: UART_S2_RWUID_SHIFT unused
UART_S2_RXEDGIF_MASK 00000040

Symbol: UART_S2_RXEDGIF_MASK
   Definitions
      At line 2631 in file MKL46Z4.s
   Uses
      None
Comment: UART_S2_RXEDGIF_MASK unused
UART_S2_RXEDGIF_SHIFT 00000006

Symbol: UART_S2_RXEDGIF_SHIFT
   Definitions
      At line 2632 in file MKL46Z4.s
   Uses
      None
Comment: UART_S2_RXEDGIF_SHIFT unused
UART_S2_RXINV_MASK 00000010

Symbol: UART_S2_RXINV_MASK
   Definitions
      At line 2633 in file MKL46Z4.s
   Uses
      None
Comment: UART_S2_RXINV_MASK unused
UART_S2_RXINV_SHIFT 00000004

Symbol: UART_S2_RXINV_SHIFT
   Definitions
      At line 2634 in file MKL46Z4.s
   Uses
      None
Comment: UART_S2_RXINV_SHIFT unused
USB0_IPR E000E418

Symbol: USB0_IPR
   Definitions
      At line 1013 in file MKL46Z4.s
   Uses
      None
Comment: USB0_IPR unused



ARM Macro Assembler    Page 228 Alphabetic symbol ordering
Absolute symbols

USB0_IRQ 00000018

Symbol: USB0_IRQ
   Definitions
      At line 1083 in file MKL46Z4.s
   Uses
      At line 1117 in file MKL46Z4.s
Comment: USB0_IRQ used once
USB0_IRQ_MASK 01000000

Symbol: USB0_IRQ_MASK
   Definitions
      At line 1117 in file MKL46Z4.s
   Uses
      None
Comment: USB0_IRQ_MASK unused
USB0_PRI_POS 00000006

Symbol: USB0_PRI_POS
   Definitions
      At line 1049 in file MKL46Z4.s
   Uses
      None
Comment: USB0_PRI_POS unused
USB0_Vector 00000028

Symbol: USB0_Vector
   Definitions
      At line 1167 in file MKL46Z4.s
   Uses
      None
Comment: USB0_Vector unused
VECTOR_SIZE 00000004

Symbol: VECTOR_SIZE
   Definitions
      At line 40 in file MKL46Z4.s
   Uses
      None
Comment: VECTOR_SIZE unused
VECTOR_TABLE_SIZE 000000C0

Symbol: VECTOR_TABLE_SIZE
   Definitions
      At line 39 in file MKL46Z4.s
   Uses
      None
Comment: VECTOR_TABLE_SIZE unused
WORD_SIZE 00000004

Symbol: WORD_SIZE
   Definitions
      At line 29 in file MKL46Z4.s
   Uses
      None
Comment: WORD_SIZE unused
1609 symbols
2006 symbols in table
